Archive member included to satisfy reference by file (symbol)

c:/devkitpro/devkitarm/bin/../lib/gcc/arm-none-eabi/6.3.0\libgcc.a(_udivsi3.o)
                              fat.o (__aeabi_uidiv)
c:/devkitpro/devkitarm/bin/../lib/gcc/arm-none-eabi/6.3.0\libgcc.a(_divsi3.o)
                              fat.o (__aeabi_idiv)
c:/devkitpro/devkitarm/bin/../lib/gcc/arm-none-eabi/6.3.0\libgcc.a(_dvmd_tls.o)
                              c:/devkitpro/devkitarm/bin/../lib/gcc/arm-none-eabi/6.3.0\libgcc.a(_udivsi3.o) (__aeabi_idiv0)
c:/devkitpro/devkitarm/bin/../lib/gcc/arm-none-eabi/6.3.0/../../../../arm-none-eabi/lib\libg.a(lib_a-memcmp.o)
                              boot.o (memcmp)
c:/devkitpro/devkitarm/bin/../lib/gcc/arm-none-eabi/6.3.0/../../../../arm-none-eabi/lib\libg.a(lib_a-memcpy-stub.o)
                              dldi_patcher.o (memcpy)
c:/devkitpro/devkitarm/bin/../lib/gcc/arm-none-eabi/6.3.0/../../../../arm-none-eabi/lib\libg.a(lib_a-memset.o)
                              dldi_patcher.o (memset)
c:/devkitpro/devkitarm/bin/../lib/gcc/arm-none-eabi/6.3.0/../../../../arm-none-eabi/lib\libg.a(lib_a-strlen-stub.o)
                              debugToFile.o (strlen)

Allocating common symbols
Common symbol       size              file

discFileSystem      0x1               fat.o
discBytePerClus     0x4               fat.o
discData            0x4               fat.o
discRootDir         0x4               fat.o
discRootDirClus     0x4               fat.o
discBytePerSec      0x4               fat.o
ERROR_CODES         0x1               boot.o
discSecPerFAT       0x4               fat.o
discFAT             0x4               fat.o
globalBuffer        0x200             fat.o
discSecPerClus      0x4               fat.o
discNumSec          0x4               fat.o
ARM9_STATE          0x1               boot.o

Memory Configuration

Name             Origin             Length             Attributes
vram             0x06000000         0x00040000
*default*        0x00000000         0xffffffff

Linker script and memory map

LOAD cardengine_arm7.bin.o
LOAD cardengine_arm9.bin.o
LOAD dldiengine.bin.o
LOAD arm9clear.arm.o
LOAD boot.o
LOAD card_patcher.o
LOAD debugToFile.o
LOAD dldi_patcher.o
LOAD encryption.o
LOAD fat.o
LOAD hook.o
LOAD sdmmc.o
LOAD arm7clear.o
LOAD bios.o
LOAD cheat_engine.o
LOAD debugprint.o
LOAD io_dldi.o
LOAD load_crt0.o
LOAD mpu_setup.o
LOAD read_bios.o
START GROUP
LOAD c:/devkitpro/devkitarm/bin/../lib/gcc/arm-none-eabi/6.3.0\libgcc.a
LOAD c:/devkitpro/devkitarm/bin/../lib/gcc/arm-none-eabi/6.3.0/../../../../arm-none-eabi/lib\libg.a
LOAD c:/devkitpro/devkitarm/bin/../lib/gcc/arm-none-eabi/6.3.0/../../../../arm-none-eabi/lib\libc.a
LOAD c:/devkitpro/devkitarm/bin/../lib/gcc/arm-none-eabi/6.3.0/../../../../arm-none-eabi/lib\libsysbase.a
END GROUP
                0x06000000                __vram_start = ORIGIN (vram)
                0x06040000                __vram_top = (ORIGIN (vram) + LENGTH (vram))
                0x0603ffa0                __sp_irq = (__vram_top - 0x60)
                0x0603fea0                __sp_svc = (__sp_irq - 0x100)
                0x0603fda0                __sp_usr = (__sp_svc - 0x100)
                0x0603fff8                __irq_flags = (__vram_top - 0x8)
                0x0603fffc                __irq_vector = (__vram_top - 0x4)

.init           0x06000000       0xf8
                0x06000000                __text_start = .
 *(.init)
 .init          0x06000000       0xf8 load_crt0.o
                0x06000000                _start
                0x06000004                storedFileCluster
                0x06000008                initDisc
                0x0600000c                wantToPatchDLDI
                0x06000010                argStart
                0x06000014                argSize
                0x0600001c                dsiSD
                0x06000020                saveFileCluster
                0x06000024                donorFileCluster
                0x06000028                patchMpuRegion
                0x0600002c                patchMpuSize
                0x06000030                forceDecompression
                0x060000f8                . = ALIGN (0x4)

.plt
 *(.plt)

.text           0x06000100     0x9268
 *(.text*)
 .text          0x06000100        0x0 cardengine_arm7.bin.o
 .text          0x06000100        0x0 cardengine_arm9.bin.o
 .text          0x06000100        0x0 dldiengine.bin.o
 .text          0x06000100      0x17c arm9clear.arm.o
                0x06000100                resetMemory2_ARM9
                0x0600020c                startBinary_ARM9
 .text          0x0600027c      0x4a0 boot.o
                0x0600027c                sdmmc_inserted
                0x06000284                sdmmc_startup
                0x060002a0                sdmmc_readsectors
                0x060002b8                boot_readFirmware
                0x06000388                passArgs_ARM7
                0x0600041c                resetMemory_ARM7
                0x06000574                loadBinary_ARM7
                0x06000660                startBinary_ARM7
                0x060006b0                initMBK
 .text.startup  0x0600071c      0x4b4 boot.o
                0x0600071c                main
 .text          0x06000bd0     0x1b1c card_patcher.o
                0x06000bd0                getOffset
                0x06000c74                generateA7Instr
                0x06000c8c                findModuleParams
                0x06000d20                decompressLZ77Backwards
                0x06000ddc                ensureArm9Decompressed
                0x06000ea8                patchCardNdsArm9
                0x060016d4                savePatchV2
                0x06001e88                savePatchV1
                0x060023a0                swapBinary_ARM7
                0x06002430                patchCardNdsArm7
                0x06002664                patchCardNds
 .text          0x060026ec      0x134 debugToFile.o
                0x060026ec                enableDebug
                0x0600272c                dbg_printf
                0x060027a8                tohex
                0x06002810                dbg_hexa
 .text          0x06002820      0x2d0 dldi_patcher.o
                0x06002820                dldiPatchBinary
 .text          0x06002af0      0x29c encryption.o
                0x06002af0                crypt_64bit_up
                0x06002b88                crypt_64bit_down
                0x06002c20                apply_keycode
                0x06002cdc                init_keycode
 .text          0x06002d8c      0xe34 fat.o
                0x06002d8c                FAT_ClustToSect
                0x06002db0                FAT_NextCluster
                0x06002f14                ucase
                0x06002f28                FAT_InitFiles
                0x0600323c                getBootFileCluster
                0x0600357c                getFileFromCluster
                0x06003590                fileRead
                0x06003828                fileWrite
                0x06003b58                buildFatTableCache
 .text          0x06003bc0      0x448 hook.o
                0x06003bc0                hookNdsHomebrew
                0x06003e18                hookNdsRetail
 .text          0x06004008      0x7e8 sdmmc.o
                0x06004008                geterror
                0x06004018                setTarget
                0x0600409c                sdmmc_send_command
                0x06004344                sdmmc_cardinserted
                0x0600434c                sdmmc_controller_init
                0x0600449c                sdmmc_sdcard_init
                0x06004760                sdmmc_sdcard_readsectors
 .text          0x060047f0       0x60 arm7clear.o
                0x060047f0                arm7clearRAM
 .text          0x06004850        0x4 bios.o
                0x06004850                swiDelay
 .text          0x06004854      0x408 cheat_engine.o
                0x06004854                cheat_engine_size
                0x06004858                intr_orig_return_offset
                0x0600485c                cheat_engine_start
                0x06004c3c                cheat_engine_end
 .text          0x06004c5c       0xa4 debugprint.o
                0x06004c5c                nocashWrite
                0x06004c5e                nocashMessage
 .text          0x06004d00     0x4000 io_dldi.o
                0x06004d00                _dldi_start
                0x06004d60                _io_dldi
 .text          0x06008d00        0x0 load_crt0.o
 .text          0x06008d00       0x40 mpu_setup.o
                0x06008d10                myMemCached
                0x06008d28                myMemUncached
 .text          0x06008d40       0x30 read_bios.o
                0x06008d40                readBios
 .text          0x06008d70      0x114 c:/devkitpro/devkitarm/bin/../lib/gcc/arm-none-eabi/6.3.0\libgcc.a(_udivsi3.o)
                0x06008d70                __aeabi_uidiv
                0x06008d70                __udivsi3
                0x06008e64                __aeabi_uidivmod
 .text          0x06008e84      0x148 c:/devkitpro/devkitarm/bin/../lib/gcc/arm-none-eabi/6.3.0\libgcc.a(_divsi3.o)
                0x06008e84                __divsi3
                0x06008e84                __aeabi_idiv
                0x06008fac                __aeabi_idivmod
 .text          0x06008fcc        0x4 c:/devkitpro/devkitarm/bin/../lib/gcc/arm-none-eabi/6.3.0\libgcc.a(_dvmd_tls.o)
                0x06008fcc                __aeabi_idiv0
                0x06008fcc                __aeabi_ldiv0
 .text          0x06008fd0        0x0 c:/devkitpro/devkitarm/bin/../lib/gcc/arm-none-eabi/6.3.0/../../../../arm-none-eabi/lib\libg.a(lib_a-memcmp.o)
 .text.memcmp   0x06008fd0       0xf0 c:/devkitpro/devkitarm/bin/../lib/gcc/arm-none-eabi/6.3.0/../../../../arm-none-eabi/lib\libg.a(lib_a-memcmp.o)
                0x06008fd0                memcmp
 .text          0x060090c0        0x0 c:/devkitpro/devkitarm/bin/../lib/gcc/arm-none-eabi/6.3.0/../../../../arm-none-eabi/lib\libg.a(lib_a-memcpy-stub.o)
 .text.memcpy   0x060090c0      0x114 c:/devkitpro/devkitarm/bin/../lib/gcc/arm-none-eabi/6.3.0/../../../../arm-none-eabi/lib\libg.a(lib_a-memcpy-stub.o)
                0x060090c0                memcpy
 .text          0x060091d4        0x0 c:/devkitpro/devkitarm/bin/../lib/gcc/arm-none-eabi/6.3.0/../../../../arm-none-eabi/lib\libg.a(lib_a-memset.o)
 .text.memset   0x060091d4      0x114 c:/devkitpro/devkitarm/bin/../lib/gcc/arm-none-eabi/6.3.0/../../../../arm-none-eabi/lib\libg.a(lib_a-memset.o)
                0x060091d4                memset
 .text          0x060092e8        0x0 c:/devkitpro/devkitarm/bin/../lib/gcc/arm-none-eabi/6.3.0/../../../../arm-none-eabi/lib\libg.a(lib_a-strlen-stub.o)
 .text.strlen   0x060092e8       0x60 c:/devkitpro/devkitarm/bin/../lib/gcc/arm-none-eabi/6.3.0/../../../../arm-none-eabi/lib\libg.a(lib_a-strlen-stub.o)
                0x060092e8                strlen
 .text.strlen.__stub
                0x06009348       0x18 linker stubs
 *(.stub)
 *(.gnu.warning)
 *(.gnu.linkonce.t*)
 *(.glue_7)
 .glue_7        0x06009368        0x0 linker stubs
 *(.glue_7t)
 .glue_7t       0x06009368        0x0 linker stubs
                0x06009368                . = ALIGN (0x4)

.vfp11_veneer   0x06009368        0x0
 .vfp11_veneer  0x06009368        0x0 linker stubs

.v4_bx          0x06009368        0x0
 .v4_bx         0x06009368        0x0 linker stubs

.iplt           0x06009368        0x0
 .iplt          0x06009368        0x0 arm9clear.arm.o

.fini
 *(.fini)
                0x06009368                __text_end = .

.rodata         0x06009368     0x5788
 *(.rodata)
 .rodata        0x06009368     0x23cc cardengine_arm7.bin.o
                0x06009368                cardengine_arm7_bin
                0x0600b730                cardengine_arm7_bin_end
                0x0600b730                cardengine_arm7_bin_size
 .rodata        0x0600b734      0x63c cardengine_arm9.bin.o
                0x0600b734                cardengine_arm9_bin
                0x0600bd6c                cardengine_arm9_bin_end
                0x0600bd6c                cardengine_arm9_bin_size
 .rodata        0x0600bd70     0x2490 dldiengine.bin.o
                0x0600bd70                dldiengine_bin
                0x0600e1fc                dldiengine_bin_size
                0x0600e1fc                dldiengine_bin_end
 .rodata        0x0600e200        0xc boot.o
 .rodata        0x0600e20c        0xc dldi_patcher.o
 *all.rodata*(*)
 *(.roda)
 *(.rodata.*)
 .rodata.str1.4
                0x0600e218      0x175 boot.o
 *fill*         0x0600e38d        0x3 ff
 .rodata.str1.4
                0x0600e390      0x61d card_patcher.o
                                0x631 (size before relaxing)
 *fill*         0x0600e9ad        0x3 ff
 .rodata.str1.4
                0x0600e9b0        0xc dldi_patcher.o
 .rodata.str1.4
                0x0600e9bc       0xe0 fat.o
 .rodata.str1.4
                0x0600ea9c       0x54 hook.o
                                 0x5e (size before relaxing)
 *(.gnu.linkonce.r*)
                0x0600eaf0                . = ALIGN (0x4)

.rel.dyn        0x0600eaf0        0x0
 .rel.iplt      0x0600eaf0        0x0 arm9clear.arm.o

.ARM.extab
 *(.ARM.extab* .gnu.linkonce.armextab.*)
                0x0600eaf0                __exidx_start = .

.ARM.exidx
 *(.ARM.exidx* .gnu.linkonce.armexidx.*)
                0x0600eaf0                __exidx_end = .
                0x0600eaf0                . = ALIGN (0x4)
                [!provide]                PROVIDE (__preinit_array_start, .)

.preinit_array
 *(.preinit_array)
                [!provide]                PROVIDE (__preinit_array_end, .)
                [!provide]                PROVIDE (__init_array_start, .)

.init_array
 *(.init_array)
                [!provide]                PROVIDE (__init_array_end, .)
                [!provide]                PROVIDE (__fini_array_start, .)

.fini_array
 *(.fini_array)
                [!provide]                PROVIDE (__fini_array_end, .)

.ctors          0x0600eaf0        0x0
 *crtbegin.o(.ctors)
 *(EXCLUDE_FILE(*crtend.o) .ctors)
 *(SORT(.ctors.*))
 *(.ctors)
                0x0600eaf0                . = ALIGN (0x4)

.dtors          0x0600eaf0        0x0
 *crtbegin.o(.dtors)
 *(EXCLUDE_FILE(*crtend.o) .dtors)
 *(SORT(.dtors.*))
 *(.dtors)
                0x0600eaf0                . = ALIGN (0x4)

.eh_frame       0x0600eaf0        0x0
 *(.eh_frame)
                0x0600eaf0                . = ALIGN (0x4)

.gcc_except_table
                0x0600eaf0        0x0
 *(.gcc_except_table)
                0x0600eaf0                . = ALIGN (0x4)

.jcr
 *(.jcr)

.got
 *(.got.plt)
 *(.got)

.vram           0x0600eaf0        0x0
                0x0600eaf0                __vram_start = ABSOLUTE (.)
 *(.vram)
 *vram.*(.text)
                0x0600eaf0                . = ALIGN (0x4)
                0x0600eaf0                __vram_end = ABSOLUTE (.)

.data           0x0600eaf0      0x168
                0x0600eaf0                __data_start = ABSOLUTE (.)
 *(.data)
 .data          0x0600eaf0        0x0 cardengine_arm7.bin.o
 .data          0x0600eaf0        0x0 cardengine_arm9.bin.o
 .data          0x0600eaf0        0x0 dldiengine.bin.o
 .data          0x0600eaf0        0x0 arm9clear.arm.o
 .data          0x0600eaf0        0x4 boot.o
                0x0600eaf0                bootName
 .data          0x0600eaf4      0x160 card_patcher.o
                0x0600eaf4                moduleParamsSignature
                0x0600eafc                mpuInitRegion1Data1
                0x0600eb00                mpuInitRegion2Data3
                0x0600eb04                cardReadCachedEndSignature3
                0x0600eb14                cardReadCachedStartSignature1
                0x0600eb1c                cardPullOutSignature1
                0x0600eb2c                cardReadStartSignature1
                0x0600eb30                a9cardReadSignature1
                0x0600eb38                mpuInitRegion2Data1
                0x0600eb3c                cardReadCachedEndSignature1
                0x0600eb4c                mpuInitRegion1Data4
                0x0600eb50                cardReadCachedEndSignature4
                0x0600eb60                cardReadCachedStartSignature4
                0x0600eb68                cardPullOutSignature4
                0x0600eb78                cardReadStartSignature4
                0x0600eb7c                a9cardReadSignature4
                0x0600eb84                mpuInitRegion1Signature
                0x0600eb88                mpuInitRegion0Data
                0x0600eb8c                mpuInitRegion0Signature
                0x0600eb90                mpuInitRegion2Signature
                0x0600eb94                mpuInitRegion3Data
                0x0600eb98                mpuInitRegion3Signature
                0x0600eb9c                cardReadDmaEndSignature
                0x0600eba8                cardReadDmaStartSignature
                0x0600ebac                cardReadDmaStartSignatureAlt
                0x0600ebb0                a9cardIdSignature
                0x0600ebbc                cardIdStartSignature
                0x0600ebc0                relocateStartSignature
                0x0600ebc4                a7cardReadSignature
                0x0600ebcc                a7something1Signature
                0x0600ebd4                a7something2Signature
                0x0600ebdc                irqEnableStartSignature1
                0x0600ebec                irqEnableStartSignature4
                0x0600ebfc                cardCheckPullOutSignature
                0x0600ec0c                mpuInitCache
                0x0600ec10                mpuInitRegion1DataAlt
                0x0600ec14                arenaLowSignature
                0x0600ec24                a9cardSendSignature
                0x0600ec40                a9instructionBHI
                0x0600ec44                a7JumpTableSignature
 .data          0x0600ec54        0x0 debugToFile.o
 .data          0x0600ec54        0x0 dldi_patcher.o
 .data          0x0600ec54        0x0 encryption.o
 .data          0x0600ec54        0x4 fat.o
 .data          0x0600ec58        0x0 hook.o
 .data          0x0600ec58        0x0 sdmmc.o
 .data          0x0600ec58        0x0 arm7clear.o
 .data          0x0600ec58        0x0 bios.o
 .data          0x0600ec58        0x0 cheat_engine.o
 .data          0x0600ec58        0x0 debugprint.o
 .data          0x0600ec58        0x0 io_dldi.o
 .data          0x0600ec58        0x0 load_crt0.o
 .data          0x0600ec58        0x0 mpu_setup.o
 .data          0x0600ec58        0x0 read_bios.o
 .data          0x0600ec58        0x0 c:/devkitpro/devkitarm/bin/../lib/gcc/arm-none-eabi/6.3.0\libgcc.a(_udivsi3.o)
 .data          0x0600ec58        0x0 c:/devkitpro/devkitarm/bin/../lib/gcc/arm-none-eabi/6.3.0\libgcc.a(_divsi3.o)
 .data          0x0600ec58        0x0 c:/devkitpro/devkitarm/bin/../lib/gcc/arm-none-eabi/6.3.0\libgcc.a(_dvmd_tls.o)
 .data          0x0600ec58        0x0 c:/devkitpro/devkitarm/bin/../lib/gcc/arm-none-eabi/6.3.0/../../../../arm-none-eabi/lib\libg.a(lib_a-memcmp.o)
 .data          0x0600ec58        0x0 c:/devkitpro/devkitarm/bin/../lib/gcc/arm-none-eabi/6.3.0/../../../../arm-none-eabi/lib\libg.a(lib_a-memcpy-stub.o)
 .data          0x0600ec58        0x0 c:/devkitpro/devkitarm/bin/../lib/gcc/arm-none-eabi/6.3.0/../../../../arm-none-eabi/lib\libg.a(lib_a-memset.o)
 .data          0x0600ec58        0x0 c:/devkitpro/devkitarm/bin/../lib/gcc/arm-none-eabi/6.3.0/../../../../arm-none-eabi/lib\libg.a(lib_a-strlen-stub.o)
 *(.data.*)
 *(.gnu.linkonce.d*)
                0x0600ec58                . = ALIGN (0x4)
                0x0600ec58                __data_end = ABSOLUTE (.)

.igot.plt       0x0600ec58        0x0
 .igot.plt      0x0600ec58        0x0 arm9clear.arm.o

.bss            0x0600ec58     0x12e8
                0x0600ec58                __bss_start = ABSOLUTE (.)
                0x0600ec58                __bss_start__ = ABSOLUTE (.)
 *(.dynbss)
 *(.gnu.linkonce.b*)
 *(.bss*)
 .bss           0x0600ec58        0x0 cardengine_arm7.bin.o
 .bss           0x0600ec58        0x0 cardengine_arm9.bin.o
 .bss           0x0600ec58        0x0 dldiengine.bin.o
 .bss           0x0600ec58        0x0 arm9clear.arm.o
 .bss           0x0600ec58        0x0 boot.o
 .bss           0x0600ec58        0x0 card_patcher.o
 .bss           0x0600ec58       0x29 debugToFile.o
 .bss           0x0600ec81        0x0 dldi_patcher.o
 *fill*         0x0600ec81        0x3 
 .bss           0x0600ec84     0x1054 encryption.o
 .bss           0x0600fcd8        0x0 fat.o
 .bss           0x0600fcd8        0x0 hook.o
 .bss           0x0600fcd8       0x3c sdmmc.o
 .bss           0x0600fd14        0x0 arm7clear.o
 .bss           0x0600fd14        0x0 bios.o
 .bss           0x0600fd14        0x0 cheat_engine.o
 .bss           0x0600fd14        0x0 debugprint.o
 .bss           0x0600fd14        0x0 io_dldi.o
 .bss           0x0600fd14        0x0 load_crt0.o
 .bss           0x0600fd14        0x0 mpu_setup.o
 .bss           0x0600fd14        0x0 read_bios.o
 .bss           0x0600fd14        0x0 c:/devkitpro/devkitarm/bin/../lib/gcc/arm-none-eabi/6.3.0\libgcc.a(_udivsi3.o)
 .bss           0x0600fd14        0x0 c:/devkitpro/devkitarm/bin/../lib/gcc/arm-none-eabi/6.3.0\libgcc.a(_divsi3.o)
 .bss           0x0600fd14        0x0 c:/devkitpro/devkitarm/bin/../lib/gcc/arm-none-eabi/6.3.0\libgcc.a(_dvmd_tls.o)
 .bss           0x0600fd14        0x0 c:/devkitpro/devkitarm/bin/../lib/gcc/arm-none-eabi/6.3.0/../../../../arm-none-eabi/lib\libg.a(lib_a-memcmp.o)
 .bss           0x0600fd14        0x0 c:/devkitpro/devkitarm/bin/../lib/gcc/arm-none-eabi/6.3.0/../../../../arm-none-eabi/lib\libg.a(lib_a-memcpy-stub.o)
 .bss           0x0600fd14        0x0 c:/devkitpro/devkitarm/bin/../lib/gcc/arm-none-eabi/6.3.0/../../../../arm-none-eabi/lib\libg.a(lib_a-memset.o)
 .bss           0x0600fd14        0x0 c:/devkitpro/devkitarm/bin/../lib/gcc/arm-none-eabi/6.3.0/../../../../arm-none-eabi/lib\libg.a(lib_a-strlen-stub.o)
 *(COMMON)
 COMMON         0x0600fd14        0x2 boot.o
                0x0600fd14                ERROR_CODES
                0x0600fd15                ARM9_STATE
 *fill*         0x0600fd16        0x2 
 COMMON         0x0600fd18      0x228 fat.o
                0x0600fd18                discFileSystem
                0x0600fd1c                discBytePerClus
                0x0600fd20                discData
                0x0600fd24                discRootDir
                0x0600fd28                discRootDirClus
                0x0600fd2c                discBytePerSec
                0x0600fd30                discSecPerFAT
                0x0600fd34                discFAT
                0x0600fd38                globalBuffer
                0x0600ff38                discSecPerClus
                0x0600ff3c                discNumSec
                0x0600ff40                . = ALIGN (0x4)
                0x0600ff40                __bss_end = .
                0x0600ff40                __bss_end__ = .
                0x0600ff40                _end = .
                0x0600ff40                __end__ = .
                [!provide]                PROVIDE (end, _end)

.stab
 *(.stab)

.stabstr
 *(.stabstr)

.stab.excl
 *(.stab.excl)

.stab.exclstr
 *(.stab.exclstr)

.stab.index
 *(.stab.index)

.stab.indexstr
 *(.stab.indexstr)

.comment        0x00000000       0x22
 *(.comment)
 .comment       0x00000000       0x22 arm9clear.arm.o
                                 0x23 (size before relaxing)
 .comment       0x00000022       0x23 boot.o
 .comment       0x00000022       0x23 card_patcher.o
 .comment       0x00000022       0x23 debugToFile.o
 .comment       0x00000022       0x23 dldi_patcher.o
 .comment       0x00000022       0x23 encryption.o
 .comment       0x00000022       0x23 fat.o
 .comment       0x00000022       0x23 hook.o
 .comment       0x00000022       0x23 sdmmc.o
 .comment       0x00000022       0x23 c:/devkitpro/devkitarm/bin/../lib/gcc/arm-none-eabi/6.3.0/../../../../arm-none-eabi/lib\libg.a(lib_a-memcmp.o)
 .comment       0x00000022       0x23 c:/devkitpro/devkitarm/bin/../lib/gcc/arm-none-eabi/6.3.0/../../../../arm-none-eabi/lib\libg.a(lib_a-memcpy-stub.o)
 .comment       0x00000022       0x23 c:/devkitpro/devkitarm/bin/../lib/gcc/arm-none-eabi/6.3.0/../../../../arm-none-eabi/lib\libg.a(lib_a-memset.o)
 .comment       0x00000022       0x23 c:/devkitpro/devkitarm/bin/../lib/gcc/arm-none-eabi/6.3.0/../../../../arm-none-eabi/lib\libg.a(lib_a-strlen-stub.o)

.ARM.attributes
                0x00000000       0x2d
 .ARM.attributes
                0x00000000       0x14 cardengine_arm7.bin.o
 .ARM.attributes
                0x00000014       0x14 cardengine_arm9.bin.o
 .ARM.attributes
                0x00000028       0x14 dldiengine.bin.o
 .ARM.attributes
                0x0000003c       0x2c arm9clear.arm.o
 .ARM.attributes
                0x00000068       0x2c boot.o
 .ARM.attributes
                0x00000094       0x2c card_patcher.o
 .ARM.attributes
                0x000000c0       0x2c debugToFile.o
 .ARM.attributes
                0x000000ec       0x2c dldi_patcher.o
 .ARM.attributes
                0x00000118       0x2c encryption.o
 .ARM.attributes
                0x00000144       0x2c fat.o
 .ARM.attributes
                0x00000170       0x2c hook.o
 .ARM.attributes
                0x0000019c       0x2c sdmmc.o
 .ARM.attributes
                0x000001c8       0x1a arm7clear.o
 .ARM.attributes
                0x000001e2       0x1a bios.o
 .ARM.attributes
                0x000001fc       0x1a cheat_engine.o
 .ARM.attributes
                0x00000216       0x1a debugprint.o
 .ARM.attributes
                0x00000230       0x1a io_dldi.o
 .ARM.attributes
                0x0000024a       0x1a load_crt0.o
 .ARM.attributes
                0x00000264       0x21 mpu_setup.o
 .ARM.attributes
                0x00000285       0x1a read_bios.o
 .ARM.attributes
                0x0000029f       0x18 c:/devkitpro/devkitarm/bin/../lib/gcc/arm-none-eabi/6.3.0\libgcc.a(_udivsi3.o)
 .ARM.attributes
                0x000002b7       0x18 c:/devkitpro/devkitarm/bin/../lib/gcc/arm-none-eabi/6.3.0\libgcc.a(_divsi3.o)
 .ARM.attributes
                0x000002cf       0x18 c:/devkitpro/devkitarm/bin/../lib/gcc/arm-none-eabi/6.3.0\libgcc.a(_dvmd_tls.o)
 .ARM.attributes
                0x000002e7       0x30 c:/devkitpro/devkitarm/bin/../lib/gcc/arm-none-eabi/6.3.0/../../../../arm-none-eabi/lib\libg.a(lib_a-memcmp.o)
 .ARM.attributes
                0x00000317       0x30 c:/devkitpro/devkitarm/bin/../lib/gcc/arm-none-eabi/6.3.0/../../../../arm-none-eabi/lib\libg.a(lib_a-memcpy-stub.o)
 .ARM.attributes
                0x00000347       0x30 c:/devkitpro/devkitarm/bin/../lib/gcc/arm-none-eabi/6.3.0/../../../../arm-none-eabi/lib\libg.a(lib_a-memset.o)
 .ARM.attributes
                0x00000377       0x30 c:/devkitpro/devkitarm/bin/../lib/gcc/arm-none-eabi/6.3.0/../../../../arm-none-eabi/lib\libg.a(lib_a-strlen-stub.o)

.debug
 *(.debug)

.line
 *(.line)

.debug_srcinfo
 *(.debug_srcinfo)

.debug_sfnames
 *(.debug_sfnames)

.debug_aranges  0x00000000      0x228
 *(.debug_aranges)
 .debug_aranges
                0x00000000       0x20 arm9clear.arm.o
 .debug_aranges
                0x00000020       0x28 boot.o
 .debug_aranges
                0x00000048       0x20 card_patcher.o
 .debug_aranges
                0x00000068       0x20 debugToFile.o
 .debug_aranges
                0x00000088       0x20 dldi_patcher.o
 .debug_aranges
                0x000000a8       0x20 encryption.o
 .debug_aranges
                0x000000c8       0x20 fat.o
 .debug_aranges
                0x000000e8       0x20 hook.o
 .debug_aranges
                0x00000108       0x20 sdmmc.o
 .debug_aranges
                0x00000128       0x20 arm7clear.o
 .debug_aranges
                0x00000148       0x20 bios.o
 .debug_aranges
                0x00000168       0x20 cheat_engine.o
 .debug_aranges
                0x00000188       0x20 debugprint.o
 .debug_aranges
                0x000001a8       0x20 io_dldi.o
 .debug_aranges
                0x000001c8       0x20 load_crt0.o
 .debug_aranges
                0x000001e8       0x20 mpu_setup.o
 .debug_aranges
                0x00000208       0x20 read_bios.o

.debug_pubnames
 *(.debug_pubnames)

.debug_info     0x00000000     0xb65b
 *(.debug_info)
 .debug_info    0x00000000      0x261 arm9clear.arm.o
 .debug_info    0x00000261     0x185a boot.o
 .debug_info    0x00001abb     0x3787 card_patcher.o
 .debug_info    0x00005242      0xbbc debugToFile.o
 .debug_info    0x00005dfe     0x1020 dldi_patcher.o
 .debug_info    0x00006e1e      0xbb4 encryption.o
 .debug_info    0x000079d2     0x11f4 fat.o
 .debug_info    0x00008bc6     0x1311 hook.o
 .debug_info    0x00009ed7     0x116f sdmmc.o
 .debug_info    0x0000b046       0xc3 arm7clear.o
 .debug_info    0x0000b109       0xbe bios.o
 .debug_info    0x0000b1c7       0xc6 cheat_engine.o
 .debug_info    0x0000b28d       0xc4 debugprint.o
 .debug_info    0x0000b351       0xc1 io_dldi.o
 .debug_info    0x0000b412       0xc3 load_crt0.o
 .debug_info    0x0000b4d5       0xc3 mpu_setup.o
 .debug_info    0x0000b598       0xc3 read_bios.o

.debug_abbrev   0x00000000     0x1d67
 *(.debug_abbrev)
 .debug_abbrev  0x00000000      0x10c arm9clear.arm.o
 .debug_abbrev  0x0000010c      0x4c2 boot.o
 .debug_abbrev  0x000005ce      0x41e card_patcher.o
 .debug_abbrev  0x000009ec      0x2e2 debugToFile.o
 .debug_abbrev  0x00000cce      0x2d9 dldi_patcher.o
 .debug_abbrev  0x00000fa7      0x272 encryption.o
 .debug_abbrev  0x00001219      0x390 fat.o
 .debug_abbrev  0x000015a9      0x3d8 hook.o
 .debug_abbrev  0x00001981      0x346 sdmmc.o
 .debug_abbrev  0x00001cc7       0x14 arm7clear.o
 .debug_abbrev  0x00001cdb       0x14 bios.o
 .debug_abbrev  0x00001cef       0x14 cheat_engine.o
 .debug_abbrev  0x00001d03       0x14 debugprint.o
 .debug_abbrev  0x00001d17       0x14 io_dldi.o
 .debug_abbrev  0x00001d2b       0x14 load_crt0.o
 .debug_abbrev  0x00001d3f       0x14 mpu_setup.o
 .debug_abbrev  0x00001d53       0x14 read_bios.o

.debug_line     0x00000000     0x2a45
 *(.debug_line)
 .debug_line    0x00000000      0x1fb arm9clear.arm.o
 .debug_line    0x000001fb      0x56e boot.o
 .debug_line    0x00000769      0x75e card_patcher.o
 .debug_line    0x00000ec7      0x226 debugToFile.o
 .debug_line    0x000010ed      0x2d4 dldi_patcher.o
 .debug_line    0x000013c1      0x329 encryption.o
 .debug_line    0x000016ea      0x5ef fat.o
 .debug_line    0x00001cd9      0x324 hook.o
 .debug_line    0x00001ffd      0x4a4 sdmmc.o
 .debug_line    0x000024a1       0x9b arm7clear.o
 .debug_line    0x0000253c       0x80 bios.o
 .debug_line    0x000025bc      0x17e cheat_engine.o
 .debug_line    0x0000273a       0x9d debugprint.o
 .debug_line    0x000027d7       0x85 io_dldi.o
 .debug_line    0x0000285c       0xc1 load_crt0.o
 .debug_line    0x0000291d       0x8f mpu_setup.o
 .debug_line    0x000029ac       0x99 read_bios.o

.debug_frame    0x00000000      0x9a4
 *(.debug_frame)
 .debug_frame   0x00000000       0x30 arm9clear.arm.o
 .debug_frame   0x00000030      0x168 boot.o
 .debug_frame   0x00000198      0x2e8 card_patcher.o
 .debug_frame   0x00000480       0x88 debugToFile.o
 .debug_frame   0x00000508       0x58 dldi_patcher.o
 .debug_frame   0x00000560       0xc8 encryption.o
 .debug_frame   0x00000628      0x1e4 fat.o
 .debug_frame   0x0000080c       0x90 hook.o
 .debug_frame   0x0000089c      0x108 sdmmc.o

.debug_str      0x00000000     0x2720
 *(.debug_str)
 .debug_str     0x00000000      0x250 arm9clear.arm.o
                                0x2a3 (size before relaxing)
 .debug_str     0x00000250      0xc83 boot.o
                                0xe3b (size before relaxing)
 .debug_str     0x00000ed3      0xc0f card_patcher.o
                               0x154b (size before relaxing)
 .debug_str     0x00001ae2       0xb1 debugToFile.o
                                0x6bd (size before relaxing)
 .debug_str     0x00001b93      0x25a dldi_patcher.o
                                0x867 (size before relaxing)
 .debug_str     0x00001ded       0xc9 encryption.o
                                0x645 (size before relaxing)
 .debug_str     0x00001eb6      0x445 fat.o
                                0x7ad (size before relaxing)
 .debug_str     0x000022fb      0x267 hook.o
                                0xc6c (size before relaxing)
 .debug_str     0x00002562      0x1be sdmmc.o
                                0x3a4 (size before relaxing)

.debug_loc      0x00000000     0x5882
 *(.debug_loc)
 .debug_loc     0x00000000       0x67 arm9clear.arm.o
 .debug_loc     0x00000067      0x66b boot.o
 .debug_loc     0x000006d2     0x282d card_patcher.o
 .debug_loc     0x00002eff      0x106 debugToFile.o
 .debug_loc     0x00003005      0x43e dldi_patcher.o
 .debug_loc     0x00003443      0x231 encryption.o
 .debug_loc     0x00003674     0x1381 fat.o
 .debug_loc     0x000049f5      0x3c6 hook.o
 .debug_loc     0x00004dbb      0xac7 sdmmc.o

.debug_macinfo
 *(.debug_macinfo)

.debug_weaknames
 *(.debug_weaknames)

.debug_funcnames
 *(.debug_funcnames)

.debug_typenames
 *(.debug_typenames)

.debug_varnames
 *(.debug_varnames)

.stack          0x00080000        0x0
                0x00080000                _stack = .
 *(.stack)
OUTPUT(c:/Users/stoke/OneDrive/Documents/GitHub/nds-bootstrap/bootloader/load.elf elf32-littlearm)

.debug_ranges   0x00000000      0x638
 .debug_ranges  0x00000000       0xf8 boot.o
 .debug_ranges  0x000000f8       0xb8 card_patcher.o
 .debug_ranges  0x000001b0      0x228 fat.o
 .debug_ranges  0x000003d8       0x30 hook.o
 .debug_ranges  0x00000408      0x230 sdmmc.o
