Archive member included to satisfy reference by file (symbol)

c:/devkitPro/libnds/lib\libnds7.a(clock.o)
                              main.o (initClockIRQ)
c:/devkitPro/libnds/lib\libnds7.a(i2c.twl.o)
                              main.o (i2cWriteRegister)
c:/devkitPro/libnds/lib\libnds7.a(input.o)
                              main.o (inputGetAndSend)
c:/devkitPro/libnds/lib\libnds7.a(system.o)
                              c:/devkitPro/libnds/lib\libnds7.a(input.o) (systemSleep)
c:/devkitPro/libnds/lib\libnds7.a(touch.o)
                              c:/devkitPro/libnds/lib\libnds7.a(input.o) (touchPenDown)
c:/devkitPro/libnds/lib\libnds7.a(userSettings.o)
                              main.o (readUserSettings)
c:/devkitPro/libnds/lib\libnds7.a(fifosystem.o)
                              fifocheck.o (fifoSendValue32)
c:/devkitPro/libnds/lib\libnds7.a(interrupts.o)
                              main.o (irqSet)
c:/devkitPro/libnds/lib\libnds7.a(libnds_exit.arm.o)
                              c:/devkitpro/devkitarm/bin/../lib/gcc/arm-none-eabi/6.3.0/../../../../arm-none-eabi/lib/ds_arm7_crt0.o (__libnds_exit)
c:/devkitPro/libnds/lib\libnds7.a(intrwait.o)
                              main.o (swiWaitForVBlank)
c:/devkitPro/libnds/lib\libnds7.a(biosCalls.o)
                              c:/devkitPro/libnds/lib\libnds7.a(clock.o) (swiDelay)
c:/devkitPro/libnds/lib\libnds7.a(debugprint.o)
                              main.o (nocashMessage)
c:/devkitPro/libnds/lib\libnds7.a(interruptDispatcher.o)
                              c:/devkitPro/libnds/lib\libnds7.a(interrupts.o) (IntrMain)
c:/devkitPro/libnds/lib\libnds7.a(swiSoftReset.o)
                              c:/devkitPro/libnds/lib\libnds7.a(fifosystem.o) (swiSoftReset)
c:/devkitPro/libnds/lib\libnds7.a(firmware.o)
                              c:/devkitPro/libnds/lib\libnds7.a(userSettings.o) (readFirmware)
c:/devkitPro/libnds/lib\libnds7.a(sdmmc.twl.o)
                              c:/devkitPro/libnds/lib\libnds7.a(system.o) (sdmmcMsgHandler)
c:/devkitPro/libnds/lib\libnds7.a(spi.o)
                              c:/devkitPro/libnds/lib\libnds7.a(system.o) (writePowerManagement)
c:/devkitPro/libnds/lib\libnds7.a(systemShutDown.o)
                              c:/devkitPro/libnds/lib\libnds7.a(libnds_exit.arm.o) (systemShutDown)
c:/devkitpro/devkitarm/bin/../lib/gcc/arm-none-eabi/6.3.0\libgcc.a(_thumb1_case_uqi.o)
                              c:/devkitPro/libnds/lib\libnds7.a(sdmmc.twl.o) (__gnu_thumb1_case_uqi)
c:/devkitpro/devkitarm/bin/../lib/gcc/arm-none-eabi/6.3.0\libgcc.a(_divsi3.o)
                              c:/devkitPro/libnds/lib\libnds7.a(clock.o) (__aeabi_idiv)
c:/devkitpro/devkitarm/bin/../lib/gcc/arm-none-eabi/6.3.0\libgcc.a(_dvmd_tls.o)
                              c:/devkitpro/devkitarm/bin/../lib/gcc/arm-none-eabi/6.3.0\libgcc.a(_divsi3.o) (__aeabi_idiv0)
c:/devkitpro/devkitarm/bin/../lib/gcc/arm-none-eabi/6.3.0/../../../../arm-none-eabi/lib\libg.a(lib_a-init.o)
                              c:/devkitpro/devkitarm/bin/../lib/gcc/arm-none-eabi/6.3.0/../../../../arm-none-eabi/lib/ds_arm7_crt0.o (__libc_init_array)
c:/devkitpro/devkitarm/bin/../lib/gcc/arm-none-eabi/6.3.0/../../../../arm-none-eabi/lib\libg.a(lib_a-memcmp.o)
                              main.o (memcmp)
c:/devkitpro/devkitarm/bin/../lib/gcc/arm-none-eabi/6.3.0/../../../../arm-none-eabi/lib\libg.a(lib_a-memcpy-stub.o)
                              c:/devkitPro/libnds/lib\libnds7.a(userSettings.o) (memcpy)
c:/devkitpro/devkitarm/bin/../lib/gcc/arm-none-eabi/6.3.0/../../../../arm-none-eabi/lib\libg.a(lib_a-memset.o)
                              c:/devkitPro/libnds/lib\libnds7.a(input.o) (memset)

Allocating common symbols
Common symbol       size              file

fifo_datamsg_data   0x40              c:/devkitPro/libnds/lib\libnds7.a(fifosystem.o)
fifo_buffer         0x800             c:/devkitPro/libnds/lib\libnds7.a(fifosystem.o)
fifo_value32_func   0x40              c:/devkitPro/libnds/lib\libnds7.a(fifosystem.o)
fifo_address_func   0x40              c:/devkitPro/libnds/lib\libnds7.a(fifosystem.o)
fifo_value32_data   0x40              c:/devkitPro/libnds/lib\libnds7.a(fifosystem.o)
fifo_value32_queue  0x40              c:/devkitPro/libnds/lib\libnds7.a(fifosystem.o)
fifo_data_queue     0x40              c:/devkitPro/libnds/lib\libnds7.a(fifosystem.o)
Keys                0x1               c:/devkitPro/libnds/lib\libnds7.a(input.o)
irqTable            0xc8              c:/devkitPro/libnds/lib\libnds7.a(interrupts.o)
fifo_address_data   0x40              c:/devkitPro/libnds/lib\libnds7.a(fifosystem.o)
fifo_datamsg_func   0x40              c:/devkitPro/libnds/lib\libnds7.a(fifosystem.o)
fifo_address_queue  0x40              c:/devkitPro/libnds/lib\libnds7.a(fifosystem.o)

Discarded input sections

 .text          0x00000000        0x0 c:/devkitpro/devkitarm/bin/../lib/gcc/arm-none-eabi/6.3.0/../../../../arm-none-eabi/lib/ds_arm7_crt0.o
 .data          0x00000000        0x0 c:/devkitpro/devkitarm/bin/../lib/gcc/arm-none-eabi/6.3.0/../../../../arm-none-eabi/lib/ds_arm7_crt0.o
 .bss           0x00000000        0x0 c:/devkitpro/devkitarm/bin/../lib/gcc/arm-none-eabi/6.3.0/../../../../arm-none-eabi/lib/ds_arm7_crt0.o
 .text          0x00000000        0x0 c:/devkitpro/devkitarm/bin/../lib/gcc/arm-none-eabi/6.3.0/crti.o
 .data          0x00000000        0x0 c:/devkitpro/devkitarm/bin/../lib/gcc/arm-none-eabi/6.3.0/crti.o
 .bss           0x00000000        0x0 c:/devkitpro/devkitarm/bin/../lib/gcc/arm-none-eabi/6.3.0/crti.o
 .text          0x00000000        0x0 c:/devkitpro/devkitarm/bin/../lib/gcc/arm-none-eabi/6.3.0/crtbegin.o
 .data          0x00000000        0x0 c:/devkitpro/devkitarm/bin/../lib/gcc/arm-none-eabi/6.3.0/crtbegin.o
 .bss           0x00000000        0x0 c:/devkitpro/devkitarm/bin/../lib/gcc/arm-none-eabi/6.3.0/crtbegin.o
 .data.__dso_handle
                0x00000000        0x4 c:/devkitpro/devkitarm/bin/../lib/gcc/arm-none-eabi/6.3.0/crtbegin.o
 .data          0x00000000        0x0 fifocheck.o
 .bss           0x00000000        0x0 fifocheck.o
 .data          0x00000000        0x0 main.o
 .data          0x00000000        0x0 mpu_setup.o
 .bss           0x00000000        0x0 mpu_setup.o
 .text          0x00000000        0x0 c:/devkitPro/libnds/lib\libnds7.a(clock.o)
 .data          0x00000000        0x0 c:/devkitPro/libnds/lib\libnds7.a(clock.o)
 .bss           0x00000000        0x0 c:/devkitPro/libnds/lib\libnds7.a(clock.o)
 .text.integerToBCD
                0x00000000       0x2a c:/devkitPro/libnds/lib\libnds7.a(clock.o)
 .text.rtcSetTimeAndDate
                0x00000000       0x28 c:/devkitPro/libnds/lib\libnds7.a(clock.o)
 .text.rtcGetTime
                0x00000000       0x48 c:/devkitPro/libnds/lib\libnds7.a(clock.o)
 .text.rtcSetTime
                0x00000000       0x26 c:/devkitPro/libnds/lib\libnds7.a(clock.o)
 .text          0x00000000        0x0 c:/devkitPro/libnds/lib\libnds7.a(i2c.twl.o)
 .data          0x00000000        0x0 c:/devkitPro/libnds/lib\libnds7.a(i2c.twl.o)
 .bss           0x00000000        0x0 c:/devkitPro/libnds/lib\libnds7.a(i2c.twl.o)
 .text.i2cGetData
                0x00000000       0x14 c:/devkitPro/libnds/lib\libnds7.a(i2c.twl.o)
 .text          0x00000000        0x0 c:/devkitPro/libnds/lib\libnds7.a(input.o)
 .data          0x00000000        0x0 c:/devkitPro/libnds/lib\libnds7.a(input.o)
 .bss           0x00000000        0x0 c:/devkitPro/libnds/lib\libnds7.a(input.o)
 COMMON         0x00000000        0x1 c:/devkitPro/libnds/lib\libnds7.a(input.o)
 .text          0x00000000        0x0 c:/devkitPro/libnds/lib\libnds7.a(system.o)
 .data          0x00000000        0x0 c:/devkitPro/libnds/lib\libnds7.a(system.o)
 .bss           0x00000000        0x0 c:/devkitPro/libnds/lib\libnds7.a(system.o)
 .text.sleepEnabled
                0x00000000        0xc c:/devkitPro/libnds/lib\libnds7.a(system.o)
 .text          0x00000000        0x0 c:/devkitPro/libnds/lib\libnds7.a(touch.o)
 .data          0x00000000        0x0 c:/devkitPro/libnds/lib\libnds7.a(touch.o)
 .bss           0x00000000        0x0 c:/devkitPro/libnds/lib\libnds7.a(touch.o)
 .text.touchRead
                0x00000000       0x68 c:/devkitPro/libnds/lib\libnds7.a(touch.o)
 .text.touchReadTemperature
                0x00000000       0x30 c:/devkitPro/libnds/lib\libnds7.a(touch.o)
 .text          0x00000000        0x0 c:/devkitPro/libnds/lib\libnds7.a(userSettings.o)
 .data          0x00000000        0x0 c:/devkitPro/libnds/lib\libnds7.a(userSettings.o)
 .bss           0x00000000        0x0 c:/devkitPro/libnds/lib\libnds7.a(userSettings.o)
 .text          0x00000000        0x0 c:/devkitPro/libnds/lib\libnds7.a(fifosystem.o)
 .data          0x00000000        0x0 c:/devkitPro/libnds/lib\libnds7.a(fifosystem.o)
 .bss           0x00000000        0x0 c:/devkitPro/libnds/lib\libnds7.a(fifosystem.o)
 .text.fifoSendAddress
                0x00000000       0x2e c:/devkitPro/libnds/lib\libnds7.a(fifosystem.o)
 .text.fifoGetAddress
                0x00000000       0x4c c:/devkitPro/libnds/lib\libnds7.a(fifosystem.o)
 .text.fifoCheckAddress
                0x00000000       0x20 c:/devkitPro/libnds/lib\libnds7.a(fifosystem.o)
 .text.fifoSetAddressHandler
                0x00000000       0x5c c:/devkitPro/libnds/lib\libnds7.a(fifosystem.o)
 .text.fifoCheckDatamsgLength
                0x00000000       0x34 c:/devkitPro/libnds/lib\libnds7.a(fifosystem.o)
 .text          0x00000000        0x0 c:/devkitPro/libnds/lib\libnds7.a(interrupts.o)
 .data          0x00000000        0x0 c:/devkitPro/libnds/lib\libnds7.a(interrupts.o)
 .bss           0x00000000        0x0 c:/devkitPro/libnds/lib\libnds7.a(interrupts.o)
 .text.setPowerButtonCB
                0x00000000       0x1c c:/devkitPro/libnds/lib\libnds7.a(interrupts.o)
 .text.irqClear
                0x00000000       0x28 c:/devkitPro/libnds/lib\libnds7.a(interrupts.o)
 .text          0x00000000        0x0 c:/devkitPro/libnds/lib\libnds7.a(libnds_exit.arm.o)
 .data          0x00000000        0x0 c:/devkitPro/libnds/lib\libnds7.a(libnds_exit.arm.o)
 .bss           0x00000000        0x0 c:/devkitPro/libnds/lib\libnds7.a(libnds_exit.arm.o)
 .text          0x00000000        0x0 c:/devkitPro/libnds/lib\libnds7.a(intrwait.o)
 .data          0x00000000        0x0 c:/devkitPro/libnds/lib\libnds7.a(intrwait.o)
 .bss           0x00000000        0x0 c:/devkitPro/libnds/lib\libnds7.a(intrwait.o)
 .text          0x00000000        0x0 c:/devkitPro/libnds/lib\libnds7.a(biosCalls.o)
 .data          0x00000000        0x0 c:/devkitPro/libnds/lib\libnds7.a(biosCalls.o)
 .bss           0x00000000        0x0 c:/devkitPro/libnds/lib\libnds7.a(biosCalls.o)
 .text.swiDivide
                0x00000000        0x4 c:/devkitPro/libnds/lib\libnds7.a(biosCalls.o)
 .text.swiRemainder
                0x00000000        0x8 c:/devkitPro/libnds/lib\libnds7.a(biosCalls.o)
 .text.swiDivMod
                0x00000000        0xc c:/devkitPro/libnds/lib\libnds7.a(biosCalls.o)
 .text.swiCopy  0x00000000        0x4 c:/devkitPro/libnds/lib\libnds7.a(biosCalls.o)
 .text.swiFastCopy
                0x00000000        0x4 c:/devkitPro/libnds/lib\libnds7.a(biosCalls.o)
 .text.swiSqrt  0x00000000        0x4 c:/devkitPro/libnds/lib\libnds7.a(biosCalls.o)
 .text.swiIsDebugger
                0x00000000        0x4 c:/devkitPro/libnds/lib\libnds7.a(biosCalls.o)
 .text.swiUnpackBits
                0x00000000        0x4 c:/devkitPro/libnds/lib\libnds7.a(biosCalls.o)
 .text.swiDecompressLZSSWram
                0x00000000        0x4 c:/devkitPro/libnds/lib\libnds7.a(biosCalls.o)
 .text.swiDecompressLZSSVramNTR
                0x00000000        0x4 c:/devkitPro/libnds/lib\libnds7.a(biosCalls.o)
 .text.swiDecompressLZSSVramTWL
                0x00000000        0x4 c:/devkitPro/libnds/lib\libnds7.a(biosCalls.o)
 .text.swiDecompressHuffman
                0x00000000        0x4 c:/devkitPro/libnds/lib\libnds7.a(biosCalls.o)
 .text.swiDecompressRLEWram
                0x00000000        0x4 c:/devkitPro/libnds/lib\libnds7.a(biosCalls.o)
 .text.swiDecompressRLEVram
                0x00000000        0x4 c:/devkitPro/libnds/lib\libnds7.a(biosCalls.o)
 .text.swiHalt  0x00000000        0x4 c:/devkitPro/libnds/lib\libnds7.a(biosCalls.o)
 .text.swiGetSineTable
                0x00000000        0x4 c:/devkitPro/libnds/lib\libnds7.a(biosCalls.o)
 .text.swiGetPitchTable
                0x00000000        0x4 c:/devkitPro/libnds/lib\libnds7.a(biosCalls.o)
 .text.swiGetVolumeTable
                0x00000000        0x4 c:/devkitPro/libnds/lib\libnds7.a(biosCalls.o)
 .text.swiSwitchToGBAMode
                0x00000000        0x4 c:/devkitPro/libnds/lib\libnds7.a(biosCalls.o)
 .text.swiSetHaltCR
                0x00000000        0x8 c:/devkitPro/libnds/lib\libnds7.a(biosCalls.o)
 .data          0x00000000        0x0 c:/devkitPro/libnds/lib\libnds7.a(debugprint.o)
 .bss           0x00000000        0x0 c:/devkitPro/libnds/lib\libnds7.a(debugprint.o)
 .data          0x00000000        0x0 c:/devkitPro/libnds/lib\libnds7.a(interruptDispatcher.o)
 .bss           0x00000000        0x0 c:/devkitPro/libnds/lib\libnds7.a(interruptDispatcher.o)
 .text          0x00000000        0x0 c:/devkitPro/libnds/lib\libnds7.a(swiSoftReset.o)
 .data          0x00000000        0x0 c:/devkitPro/libnds/lib\libnds7.a(swiSoftReset.o)
 .bss           0x00000000        0x0 c:/devkitPro/libnds/lib\libnds7.a(swiSoftReset.o)
 .text          0x00000000        0x0 c:/devkitPro/libnds/lib\libnds7.a(firmware.o)
 .data          0x00000000        0x0 c:/devkitPro/libnds/lib\libnds7.a(firmware.o)
 .bss           0x00000000        0x0 c:/devkitPro/libnds/lib\libnds7.a(firmware.o)
 .text          0x00000000        0x0 c:/devkitPro/libnds/lib\libnds7.a(sdmmc.twl.o)
 .data          0x00000000        0x0 c:/devkitPro/libnds/lib\libnds7.a(sdmmc.twl.o)
 .bss           0x00000000        0x0 c:/devkitPro/libnds/lib\libnds7.a(sdmmc.twl.o)
 .text.geterror
                0x00000000        0x8 c:/devkitPro/libnds/lib\libnds7.a(sdmmc.twl.o)
 .text.sdmmc_cardinserted
                0x00000000        0x4 c:/devkitPro/libnds/lib\libnds7.a(sdmmc.twl.o)
 .text.sdmmc_sdcard_readsectors
                0x00000000       0x18 c:/devkitPro/libnds/lib\libnds7.a(sdmmc.twl.o)
 .text.sdmmc_sdcard_writesectors
                0x00000000       0x18 c:/devkitPro/libnds/lib\libnds7.a(sdmmc.twl.o)
 .text.sdmmc_nand_readsectors
                0x00000000       0x18 c:/devkitPro/libnds/lib\libnds7.a(sdmmc.twl.o)
 .text.sdmmc_nand_writesectors
                0x00000000       0x18 c:/devkitPro/libnds/lib\libnds7.a(sdmmc.twl.o)
 .text          0x00000000        0x0 c:/devkitPro/libnds/lib\libnds7.a(spi.o)
 .data          0x00000000        0x0 c:/devkitPro/libnds/lib\libnds7.a(spi.o)
 .bss           0x00000000        0x0 c:/devkitPro/libnds/lib\libnds7.a(spi.o)
 .text          0x00000000        0x0 c:/devkitPro/libnds/lib\libnds7.a(systemShutDown.o)
 .data          0x00000000        0x0 c:/devkitPro/libnds/lib\libnds7.a(systemShutDown.o)
 .bss           0x00000000        0x0 c:/devkitPro/libnds/lib\libnds7.a(systemShutDown.o)
 .data          0x00000000        0x0 c:/devkitpro/devkitarm/bin/../lib/gcc/arm-none-eabi/6.3.0\libgcc.a(_thumb1_case_uqi.o)
 .bss           0x00000000        0x0 c:/devkitpro/devkitarm/bin/../lib/gcc/arm-none-eabi/6.3.0\libgcc.a(_thumb1_case_uqi.o)
 .data          0x00000000        0x0 c:/devkitpro/devkitarm/bin/../lib/gcc/arm-none-eabi/6.3.0\libgcc.a(_divsi3.o)
 .bss           0x00000000        0x0 c:/devkitpro/devkitarm/bin/../lib/gcc/arm-none-eabi/6.3.0\libgcc.a(_divsi3.o)
 .data          0x00000000        0x0 c:/devkitpro/devkitarm/bin/../lib/gcc/arm-none-eabi/6.3.0\libgcc.a(_dvmd_tls.o)
 .bss           0x00000000        0x0 c:/devkitpro/devkitarm/bin/../lib/gcc/arm-none-eabi/6.3.0\libgcc.a(_dvmd_tls.o)
 .text          0x00000000        0x0 c:/devkitpro/devkitarm/bin/../lib/gcc/arm-none-eabi/6.3.0/../../../../arm-none-eabi/lib\libg.a(lib_a-init.o)
 .data          0x00000000        0x0 c:/devkitpro/devkitarm/bin/../lib/gcc/arm-none-eabi/6.3.0/../../../../arm-none-eabi/lib\libg.a(lib_a-init.o)
 .bss           0x00000000        0x0 c:/devkitpro/devkitarm/bin/../lib/gcc/arm-none-eabi/6.3.0/../../../../arm-none-eabi/lib\libg.a(lib_a-init.o)
 .text          0x00000000        0x0 c:/devkitpro/devkitarm/bin/../lib/gcc/arm-none-eabi/6.3.0/../../../../arm-none-eabi/lib\libg.a(lib_a-memcmp.o)
 .data          0x00000000        0x0 c:/devkitpro/devkitarm/bin/../lib/gcc/arm-none-eabi/6.3.0/../../../../arm-none-eabi/lib\libg.a(lib_a-memcmp.o)
 .bss           0x00000000        0x0 c:/devkitpro/devkitarm/bin/../lib/gcc/arm-none-eabi/6.3.0/../../../../arm-none-eabi/lib\libg.a(lib_a-memcmp.o)
 .text          0x00000000        0x0 c:/devkitpro/devkitarm/bin/../lib/gcc/arm-none-eabi/6.3.0/../../../../arm-none-eabi/lib\libg.a(lib_a-memcpy-stub.o)
 .data          0x00000000        0x0 c:/devkitpro/devkitarm/bin/../lib/gcc/arm-none-eabi/6.3.0/../../../../arm-none-eabi/lib\libg.a(lib_a-memcpy-stub.o)
 .bss           0x00000000        0x0 c:/devkitpro/devkitarm/bin/../lib/gcc/arm-none-eabi/6.3.0/../../../../arm-none-eabi/lib\libg.a(lib_a-memcpy-stub.o)
 .text          0x00000000        0x0 c:/devkitpro/devkitarm/bin/../lib/gcc/arm-none-eabi/6.3.0/../../../../arm-none-eabi/lib\libg.a(lib_a-memset.o)
 .data          0x00000000        0x0 c:/devkitpro/devkitarm/bin/../lib/gcc/arm-none-eabi/6.3.0/../../../../arm-none-eabi/lib\libg.a(lib_a-memset.o)
 .bss           0x00000000        0x0 c:/devkitpro/devkitarm/bin/../lib/gcc/arm-none-eabi/6.3.0/../../../../arm-none-eabi/lib\libg.a(lib_a-memset.o)
 .text          0x00000000        0x0 c:/devkitpro/devkitarm/bin/../lib/gcc/arm-none-eabi/6.3.0/crtend.o
 .data          0x00000000        0x0 c:/devkitpro/devkitarm/bin/../lib/gcc/arm-none-eabi/6.3.0/crtend.o
 .bss           0x00000000        0x0 c:/devkitpro/devkitarm/bin/../lib/gcc/arm-none-eabi/6.3.0/crtend.o
 .text          0x00000000        0x0 c:/devkitpro/devkitarm/bin/../lib/gcc/arm-none-eabi/6.3.0/crtn.o
 .data          0x00000000        0x0 c:/devkitpro/devkitarm/bin/../lib/gcc/arm-none-eabi/6.3.0/crtn.o
 .bss           0x00000000        0x0 c:/devkitpro/devkitarm/bin/../lib/gcc/arm-none-eabi/6.3.0/crtn.o

Memory Configuration

Name             Origin             Length             Attributes
ewram            0x02380000         0x00b80000
rom              0x08000000         0x02000000
iwram            0x037f8000         0x00018000
twl_ewram        0x02e80000         0x00070000
twl_iwram        0x03000000         0x00040000
*default*        0x00000000         0xffffffff

Linker script and memory map

                0x037f8000                __iwram_start = ORIGIN (iwram)
                0x03810000                __iwram_top = (ORIGIN (iwram) + LENGTH (iwram))
                0x0380ff00                __sp_irq = (__iwram_top - 0x100)
                0x0380fe00                __sp_svc = (__sp_irq - 0x100)
                0x0380fd00                __sp_usr = (__sp_svc - 0x100)
                0x03fffff8                __irq_flags = 0x3fffff8
                0x03ffffc0                __irq_flagsaux = 0x3ffffc0
                0x03fffffc                __irq_vector = 0x3fffffc

.twl            0x03000000      0xab0 load address 0x02e80000
                0x02e80000                __arm7i_lma__ = LOADADDR (.twl)
                0x03000000                __arm7i_start__ = .
 *(.twl)
 .twl           0x03000000       0x74 c:/devkitPro/libnds/lib\libnds7.a(touch.o)
                0x0300003c                readTSCReg
 .twl           0x03000074       0xf4 c:/devkitPro/libnds/lib\libnds7.a(interrupts.o)
                0x03000074                i2cIRQHandler
                0x030000ce                irqSetAUX
                0x030000f4                irqClearAUX
                0x03000120                irqDisableAUX
                0x03000144                irqEnableAUX
 *.twl*(.text .stub .text.* .gnu.linkonce.t.*)
 .text.i2cWaitBusy
                0x03000168       0x10 c:/devkitPro/libnds/lib\libnds7.a(i2c.twl.o)
 .text.i2cDelay
                0x03000178       0x18 c:/devkitPro/libnds/lib\libnds7.a(i2c.twl.o)
                0x03000178                i2cDelay
 .text.i2cStop  0x03000190       0x40 c:/devkitPro/libnds/lib\libnds7.a(i2c.twl.o)
                0x03000190                i2cStop
 .text.i2cGetResult
                0x030001d0       0x18 c:/devkitPro/libnds/lib\libnds7.a(i2c.twl.o)
                0x030001d0                i2cGetResult
 .text.i2cSetDelay
                0x030001e8       0x14 c:/devkitPro/libnds/lib\libnds7.a(i2c.twl.o)
                0x030001e8                i2cSetDelay
 .text.i2cSelectDevice
                0x030001fc       0x24 c:/devkitPro/libnds/lib\libnds7.a(i2c.twl.o)
                0x030001fc                i2cSelectDevice
 .text.i2cSelectRegister
                0x03000220       0x24 c:/devkitPro/libnds/lib\libnds7.a(i2c.twl.o)
                0x03000220                i2cSelectRegister
 .text.i2cWriteRegister
                0x03000244       0x5c c:/devkitPro/libnds/lib\libnds7.a(i2c.twl.o)
                0x03000244                i2cWriteRegister
 .text.i2cReadRegister
                0x030002a0       0x64 c:/devkitPro/libnds/lib\libnds7.a(i2c.twl.o)
                0x030002a0                i2cReadRegister
 .text.setckl   0x03000304       0x34 c:/devkitPro/libnds/lib\libnds7.a(sdmmc.twl.o)
 .text.setTarget
                0x03000338       0x44 c:/devkitPro/libnds/lib\libnds7.a(sdmmc.twl.o)
                0x03000338                setTarget
 .text.sdmmc_send_command
                0x0300037c      0x24c c:/devkitPro/libnds/lib\libnds7.a(sdmmc.twl.o)
                0x0300037c                sdmmc_send_command
 .text.sdmmc_controller_init
                0x030005c8      0x120 c:/devkitPro/libnds/lib\libnds7.a(sdmmc.twl.o)
                0x030005c8                sdmmc_controller_init
 .text.sdmmc_sdcard_init
                0x030006e8      0x1a0 c:/devkitPro/libnds/lib\libnds7.a(sdmmc.twl.o)
                0x030006e8                sdmmc_sdcard_init
 .text.sdmmc_readsectors
                0x03000888       0x70 c:/devkitPro/libnds/lib\libnds7.a(sdmmc.twl.o)
                0x03000888                sdmmc_readsectors
 .text.sdmmc_writesectors
                0x030008f8       0x70 c:/devkitPro/libnds/lib\libnds7.a(sdmmc.twl.o)
                0x030008f8                sdmmc_writesectors
 .text.sdmmcMsgHandler
                0x03000968       0x6c c:/devkitPro/libnds/lib\libnds7.a(sdmmc.twl.o)
                0x03000968                sdmmcMsgHandler
 .text.sdmmcValueHandler
                0x030009d4       0x5c c:/devkitPro/libnds/lib\libnds7.a(sdmmc.twl.o)
                0x030009d4                sdmmcValueHandler
 .text.sdmmcValueHandler.__stub
                0x03000a30       0x80 linker stubs
 *.twl*(.rodata)
 *.twl*(.roda)
 *.twl*(.rodata.*)
 *.twl*(.data)
 *.twl*(.data.*)
 *.twl*(.gnu.linkonce.d*)
                0x03000ab0                __arm7i_end__ = .

.twl_bss        0x03000ab0      0x148
                0x03000ab0                __twl_bss_start__ = .
 *(.twl_bss)
 .twl_bss       0x03000ab0       0xcc c:/devkitPro/libnds/lib\libnds7.a(interrupts.o)
                0x03000ab4                irqTableAUX
 *.twl.*(.dynbss)
 *.twl.*(.gnu.linkonce.b*)
 *.twl.*(.bss*)
 .bss.i2cCurrentDelay
                0x03000b7c        0x4 c:/devkitPro/libnds/lib\libnds7.a(i2c.twl.o)
 .bss.deviceNAND
                0x03000b80       0x3c c:/devkitPro/libnds/lib\libnds7.a(sdmmc.twl.o)
 .bss.deviceSD  0x03000bbc       0x3c c:/devkitPro/libnds/lib\libnds7.a(sdmmc.twl.o)
 *.twl.*(COMMON)
                0x03000bf8                __twl_bss_end__ = .

.crt0           0x02380000      0x1c8
 *(.crt0)
 .crt0          0x02380000      0x1c8 c:/devkitpro/devkitarm/bin/../lib/gcc/arm-none-eabi/6.3.0/../../../../arm-none-eabi/lib/ds_arm7_crt0.o
                0x02380000                _start
                0x023801c8                . = ALIGN (0x4)

.text           0x037f8000     0x2708 load address 0x023801c8
                0x023801c8                __arm7_lma__ = LOADADDR (.text)
                0x037f8000                __arm7_start__ = .
 *(SORT(.init))
 .init          0x037f8000        0xc c:/devkitpro/devkitarm/bin/../lib/gcc/arm-none-eabi/6.3.0/crti.o
                0x037f8000                _init
 .init          0x037f800c        0xc c:/devkitpro/devkitarm/bin/../lib/gcc/arm-none-eabi/6.3.0/crtn.o
 *(.plt)
 *(.text .stub .text.* .gnu.linkonce.t.*)
 .text.deregister_tm_clones
                0x037f8018       0x30 c:/devkitpro/devkitarm/bin/../lib/gcc/arm-none-eabi/6.3.0/crtbegin.o
 .text.register_tm_clones
                0x037f8048       0x38 c:/devkitpro/devkitarm/bin/../lib/gcc/arm-none-eabi/6.3.0/crtbegin.o
 .text.__do_global_dtors_aux
                0x037f8080       0x44 c:/devkitpro/devkitarm/bin/../lib/gcc/arm-none-eabi/6.3.0/crtbegin.o
 .text.frame_dummy
                0x037f80c4       0x5c c:/devkitpro/devkitarm/bin/../lib/gcc/arm-none-eabi/6.3.0/crtbegin.o
 .text          0x037f8120       0x48 fifocheck.o
                0x037f8120                SCFGFifoCheck
 .text          0x037f8168       0xb4 main.o
                0x037f8168                VcountHandler
                0x037f8178                myFIFOValue32Handler
                0x037f81b8                tohex
 .text.startup  0x037f821c      0x1a8 main.o
                0x037f821c                main
 .text          0x037f83c4       0x40 mpu_setup.o
                0x037f83d4                myMemCached
                0x037f83ec                myMemUncached
 .text.syncRTC  0x037f8404       0x10 c:/devkitPro/libnds/lib\libnds7.a(clock.o)
                0x037f8404                syncRTC
 .text.BCDToInteger
                0x037f8414       0x22 c:/devkitPro/libnds/lib\libnds7.a(clock.o)
                0x037f8414                BCDToInteger
 *fill*         0x037f8436        0x2 
 .text.rtcTransaction
                0x037f8438       0xfc c:/devkitPro/libnds/lib\libnds7.a(clock.o)
                0x037f8438                rtcTransaction
 .text.rtcReset
                0x037f8534       0x3e c:/devkitPro/libnds/lib\libnds7.a(clock.o)
                0x037f8534                rtcReset
 .text.rtcGetTimeAndDate
                0x037f8572       0x48 c:/devkitPro/libnds/lib\libnds7.a(clock.o)
                0x037f8572                rtcGetTimeAndDate
 *fill*         0x037f85ba        0x2 
 .text.resyncClock
                0x037f85bc       0xc8 c:/devkitPro/libnds/lib\libnds7.a(clock.o)
                0x037f85bc                resyncClock
 .text.initClockIRQ
                0x037f8684       0x80 c:/devkitPro/libnds/lib\libnds7.a(clock.o)
                0x037f8684                initClockIRQ
 .text.inputGetAndSend
                0x037f8704       0xb8 c:/devkitPro/libnds/lib\libnds7.a(input.o)
                0x037f8704                inputGetAndSend
 .text.powerValueHandler
                0x037f87bc      0x130 c:/devkitPro/libnds/lib\libnds7.a(system.o)
                0x037f87bc                powerValueHandler
 .text.systemSleep
                0x037f88ec       0x20 c:/devkitPro/libnds/lib\libnds7.a(system.o)
                0x037f88ec                systemSleep
 .text.installSystemFIFO
                0x037f890c       0x4c c:/devkitPro/libnds/lib\libnds7.a(system.o)
                0x037f890c                installSystemFIFO
 .text.SerialWaitBusy
                0x037f8958       0x10 c:/devkitPro/libnds/lib\libnds7.a(touch.o)
 .text.CheckStylus
                0x037f8968       0x88 c:/devkitPro/libnds/lib\libnds7.a(touch.o)
 .text.readTouchValue
                0x037f89f0      0x154 c:/devkitPro/libnds/lib\libnds7.a(touch.o)
                0x037f89f0                readTouchValue
 .text.UpdateRange
                0x037f8b44       0x6c c:/devkitPro/libnds/lib\libnds7.a(touch.o)
                0x037f8b44                UpdateRange
 .text.touchPenDown
                0x037f8bb0       0x54 c:/devkitPro/libnds/lib\libnds7.a(touch.o)
                0x037f8bb0                touchPenDown
 .text.touchReadXY
                0x037f8c04      0x2ec c:/devkitPro/libnds/lib\libnds7.a(touch.o)
                0x037f8c04                touchReadXY
 .text.readUserSettings
                0x037f8ef0       0xd4 c:/devkitPro/libnds/lib\libnds7.a(userSettings.o)
                0x037f8ef0                readUserSettings
 .text.IPC_SendSync
                0x037f8fc4       0x24 c:/devkitPro/libnds/lib\libnds7.a(fifosystem.o)
 .text.fifo_freeBlock
                0x037f8fe8       0x30 c:/devkitPro/libnds/lib\libnds7.a(fifosystem.o)
 .text.fifo_queueBlock
                0x037f9018       0x44 c:/devkitPro/libnds/lib\libnds7.a(fifosystem.o)
 .text.__timeoutvbl
                0x037f905c       0x10 c:/devkitPro/libnds/lib\libnds7.a(fifosystem.o)
 .text.fifo_allocBlock.part.0
                0x037f906c       0x34 c:/devkitPro/libnds/lib\libnds7.a(fifosystem.o)
 .text.fifoInternalSendInterrupt
                0x037f90a0       0x64 c:/devkitPro/libnds/lib\libnds7.a(fifosystem.o)
 .text.fifo_waitBlock
                0x037f9104       0x4c c:/devkitPro/libnds/lib\libnds7.a(fifosystem.o)
 .text.fifoInternalSend
                0x037f9150       0xf0 c:/devkitPro/libnds/lib\libnds7.a(fifosystem.o)
 .text.fifoSendValue32
                0x037f9240       0x38 c:/devkitPro/libnds/lib\libnds7.a(fifosystem.o)
                0x037f9240                fifoSendValue32
 .text.fifoSendDatamsg
                0x037f9278       0x6c c:/devkitPro/libnds/lib\libnds7.a(fifosystem.o)
                0x037f9278                fifoSendDatamsg
 .text.fifoGetValue32
                0x037f92e4       0x4c c:/devkitPro/libnds/lib\libnds7.a(fifosystem.o)
                0x037f92e4                fifoGetValue32
 .text.fifoGetDatamsg
                0x037f9330       0xc0 c:/devkitPro/libnds/lib\libnds7.a(fifosystem.o)
                0x037f9330                fifoGetDatamsg
 .text.fifoInternalRecvInterrupt
                0x037f93f0      0x2d4 c:/devkitPro/libnds/lib\libnds7.a(fifosystem.o)
 .text.fifoCheckDatamsg
                0x037f96c4       0x20 c:/devkitPro/libnds/lib\libnds7.a(fifosystem.o)
                0x037f96c4                fifoCheckDatamsg
 .text.fifoSetDatamsgHandler
                0x037f96e4       0x8c c:/devkitPro/libnds/lib\libnds7.a(fifosystem.o)
                0x037f96e4                fifoSetDatamsgHandler
 .text.fifoCheckValue32
                0x037f9770       0x20 c:/devkitPro/libnds/lib\libnds7.a(fifosystem.o)
                0x037f9770                fifoCheckValue32
 .text.fifoSetValue32Handler
                0x037f9790       0x5c c:/devkitPro/libnds/lib\libnds7.a(fifosystem.o)
                0x037f9790                fifoSetValue32Handler
 .text.fifoInit
                0x037f97ec      0x168 c:/devkitPro/libnds/lib\libnds7.a(fifosystem.o)
                0x037f97ec                fifoInit
 .text.irqDummy
                0x037f9954        0x2 c:/devkitPro/libnds/lib\libnds7.a(interrupts.o)
                0x037f9954                irqDummy
 *fill*         0x037f9956        0x2 
 .text.__irqClear
                0x037f9958       0x1c c:/devkitPro/libnds/lib\libnds7.a(interrupts.o)
 .text.__irqSet.part.0
                0x037f9974       0x22 c:/devkitPro/libnds/lib\libnds7.a(interrupts.o)
 *fill*         0x037f9996        0x2 
 .text.irqSet   0x037f9998       0x5c c:/devkitPro/libnds/lib\libnds7.a(interrupts.o)
                0x037f9998                irqSet
 .text.irqInitHandler
                0x037f99f4       0x44 c:/devkitPro/libnds/lib\libnds7.a(interrupts.o)
                0x037f99f4                irqInitHandler
 .text.irqEnable
                0x037f9a38       0x64 c:/devkitPro/libnds/lib\libnds7.a(interrupts.o)
                0x037f9a38                irqEnable
 .text.irqDisable
                0x037f9a9c       0x68 c:/devkitPro/libnds/lib\libnds7.a(interrupts.o)
                0x037f9a9c                irqDisable
 .text.irqInit  0x037f9b04       0x54 c:/devkitPro/libnds/lib\libnds7.a(interrupts.o)
                0x037f9b04                irqInit
 .text.systemErrorExit
                0x037f9b58        0x4 c:/devkitPro/libnds/lib\libnds7.a(libnds_exit.arm.o)
                0x037f9b58                systemErrorExit
 *fill*         0x037f9b5c        0x4 
 .text.__libnds_exit
                0x037f9b60       0x54 c:/devkitPro/libnds/lib\libnds7.a(libnds_exit.arm.o)
                0x037f9b60                __libnds_exit
 .text.swiWaitForVBlank
                0x037f9bb4       0x10 c:/devkitPro/libnds/lib\libnds7.a(intrwait.o)
                0x037f9bb4                swiWaitForVBlank
 .text.swiIntrWait
                0x037f9bc4       0x44 c:/devkitPro/libnds/lib\libnds7.a(intrwait.o)
                0x037f9bc4                swiIntrWait
 .text.swiDelay
                0x037f9c08        0x4 c:/devkitPro/libnds/lib\libnds7.a(biosCalls.o)
                0x037f9c08                swiDelay
 .text.swiSleep
                0x037f9c0c        0x4 c:/devkitPro/libnds/lib\libnds7.a(biosCalls.o)
                0x037f9c0c                swiSleep
 .text.swiChangeSoundBias
                0x037f9c10        0x4 c:/devkitPro/libnds/lib\libnds7.a(biosCalls.o)
                0x037f9c10                swiChangeSoundBias
 .text.swiCRC16
                0x037f9c14        0x4 c:/devkitPro/libnds/lib\libnds7.a(biosCalls.o)
                0x037f9c14                swiCRC16
 .text          0x037f9c18       0xa4 c:/devkitPro/libnds/lib\libnds7.a(debugprint.o)
                0x037f9c18                nocashWrite
                0x037f9c1a                nocashMessage
 .text          0x037f9cbc       0xec c:/devkitPro/libnds/lib\libnds7.a(interruptDispatcher.o)
                0x037f9cbc                IntrMain
 .text.swiSoftReset
                0x037f9da8       0x10 c:/devkitPro/libnds/lib\libnds7.a(swiSoftReset.o)
                0x037f9da8                swiSoftReset
 .text.SerialWaitBusy
                0x037f9db8       0x10 c:/devkitPro/libnds/lib\libnds7.a(firmware.o)
 .text.readwriteSPI
                0x037f9dc8       0x1c c:/devkitPro/libnds/lib\libnds7.a(firmware.o)
 .text.readFirmware
                0x037f9de4       0x74 c:/devkitPro/libnds/lib\libnds7.a(firmware.o)
                0x037f9de4                readFirmware
 .text.writeFirmware
                0x037f9e58      0x140 c:/devkitPro/libnds/lib\libnds7.a(firmware.o)
                0x037f9e58                writeFirmware
 .text.firmwareMsgHandler
                0x037f9f98       0x48 c:/devkitPro/libnds/lib\libnds7.a(firmware.o)
                0x037f9f98                firmwareMsgHandler
 .text.writePowerManagement
                0x037f9fe0       0x60 c:/devkitPro/libnds/lib\libnds7.a(spi.o)
                0x037f9fe0                writePowerManagement
 .text.ledBlink
                0x037fa040       0x22 c:/devkitPro/libnds/lib\libnds7.a(spi.o)
                0x037fa040                ledBlink
 *fill*         0x037fa062        0x2 
 .text.systemShutDown
                0x037fa064       0x30 c:/devkitPro/libnds/lib\libnds7.a(systemShutDown.o)
                0x037fa064                systemShutDown
 .text          0x037fa094       0x14 c:/devkitpro/devkitarm/bin/../lib/gcc/arm-none-eabi/6.3.0\libgcc.a(_thumb1_case_uqi.o)
                0x037fa094                __gnu_thumb1_case_uqi
 .text          0x037fa0a8      0x148 c:/devkitpro/devkitarm/bin/../lib/gcc/arm-none-eabi/6.3.0\libgcc.a(_divsi3.o)
                0x037fa0a8                __divsi3
                0x037fa0a8                __aeabi_idiv
                0x037fa1d0                __aeabi_idivmod
 .text          0x037fa1f0        0x4 c:/devkitpro/devkitarm/bin/../lib/gcc/arm-none-eabi/6.3.0\libgcc.a(_dvmd_tls.o)
                0x037fa1f0                __aeabi_idiv0
                0x037fa1f0                __aeabi_ldiv0
 .text.__libc_init_array
                0x037fa1f4       0x80 c:/devkitpro/devkitarm/bin/../lib/gcc/arm-none-eabi/6.3.0/../../../../arm-none-eabi/lib\libg.a(lib_a-init.o)
                0x037fa1f4                __libc_init_array
 .text.memcmp   0x037fa274       0xf0 c:/devkitpro/devkitarm/bin/../lib/gcc/arm-none-eabi/6.3.0/../../../../arm-none-eabi/lib\libg.a(lib_a-memcmp.o)
                0x037fa274                memcmp
 .text.memcpy   0x037fa364      0x114 c:/devkitpro/devkitarm/bin/../lib/gcc/arm-none-eabi/6.3.0/../../../../arm-none-eabi/lib\libg.a(lib_a-memcpy-stub.o)
                0x037fa364                memcpy
 .text.memset   0x037fa478      0x114 c:/devkitpro/devkitarm/bin/../lib/gcc/arm-none-eabi/6.3.0/../../../../arm-none-eabi/lib\libg.a(lib_a-memset.o)
                0x037fa478                memset
 *fill*         0x037fa58c        0x4 
 .text.memset.__stub
                0x037fa590      0x140 linker stubs
 *(.text.*personality*)
 *(.gnu.warning)
 *(.glue_7t)
 .glue_7t       0x037fa708        0x0 linker stubs
 *(.glue_7)
 .glue_7        0x037fa708        0x0 linker stubs
 *(.vfp11_veneer)
 .vfp11_veneer  0x037fa708        0x0 linker stubs
                0x037fa708                . = ALIGN (0x4)

.v4_bx          0x037fa708        0x0 load address 0x023828d0
 .v4_bx         0x037fa708        0x0 linker stubs

.iplt           0x037fa708        0x0 load address 0x023828d0
 .iplt          0x037fa708        0x0 c:/devkitpro/devkitarm/bin/../lib/gcc/arm-none-eabi/6.3.0/../../../../arm-none-eabi/lib/ds_arm7_crt0.o

.fini           0x037fa708       0x18 load address 0x023828d0
 *(.fini)
 .fini          0x037fa708        0xc c:/devkitpro/devkitarm/bin/../lib/gcc/arm-none-eabi/6.3.0/crti.o
                0x037fa708                _fini
 .fini          0x037fa714        0xc c:/devkitpro/devkitarm/bin/../lib/gcc/arm-none-eabi/6.3.0/crtn.o

.rodata         0x037fa720       0x98 load address 0x023828e8
 *(.rodata)
 .rodata        0x037fa720        0xc main.o
 *all.rodata*(*)
 *(.roda)
 *(.rodata.*)
 .rodata.str1.4
                0x037fa72c       0x70 main.o
                                 0x6f (size before relaxing)
 .rodata.ydays  0x037fa79c       0x1a c:/devkitPro/libnds/lib\libnds7.a(clock.o)
 *(.gnu.linkonce.r*)
                0x037fa7b8                . = ALIGN (0x4)
 *fill*         0x037fa7b6        0x2 

.ARM.extab
 *(.ARM.extab* .gnu.linkonce.armextab.*)

.ARM.exidx      0x037fa7b8        0x0 load address 0x02382980
                0x037fa7b8                __exidx_start = .
 *(.ARM.exidx* .gnu.linkonce.armexidx.*)
                0x037fa7b8                __exidx_end = .

.preinit_array  0x037fa7b8        0x0 load address 0x02382980
                0x037fa7b8                . = ALIGN (0x4)
                0x037fa7b8                PROVIDE (__preinit_array_start, .)
 *(.preinit_array)
                0x037fa7b8                PROVIDE (__preinit_array_end, .)

.init_array     0x037fa7b8        0x4 load address 0x02382980
                0x037fa7b8                PROVIDE (__init_array_start, .)
 *(.init_array)
 .init_array    0x037fa7b8        0x4 c:/devkitpro/devkitarm/bin/../lib/gcc/arm-none-eabi/6.3.0/crtbegin.o
                0x037fa7bc                PROVIDE (__init_array_end, .)

.fini_array     0x037fa7bc        0x4 load address 0x02382984
                [!provide]                PROVIDE (__fini_array_start, .)
 *(.fini_array)
 .fini_array    0x037fa7bc        0x4 c:/devkitpro/devkitarm/bin/../lib/gcc/arm-none-eabi/6.3.0/crtbegin.o
                [!provide]                PROVIDE (__fini_array_end, .)

.ctors          0x037fa7c0        0x0 load address 0x02382988
 *crtbegin.o(.ctors)
 *(EXCLUDE_FILE(*crtend.o) .ctors)
 *(SORT(.ctors.*))
 *(.ctors)
                0x037fa7c0                . = ALIGN (0x4)

.dtors          0x037fa7c0        0x0 load address 0x02382988
 *crtbegin.o(.dtors)
 *(EXCLUDE_FILE(*crtend.o) .dtors)
 *(SORT(.dtors.*))
 *(.dtors)
                0x037fa7c0                . = ALIGN (0x4)

.eh_frame       0x037fa7c0        0x4 load address 0x02382988
 *(.eh_frame)
 .eh_frame      0x037fa7c0        0x0 c:/devkitpro/devkitarm/bin/../lib/gcc/arm-none-eabi/6.3.0/crtbegin.o
 .eh_frame      0x037fa7c0        0x4 c:/devkitpro/devkitarm/bin/../lib/gcc/arm-none-eabi/6.3.0/crtend.o
                0x037fa7c4                . = ALIGN (0x4)

.rel.dyn        0x037fa7c4        0x0 load address 0x0238298c
 .rel.iplt      0x037fa7c4        0x0 c:/devkitpro/devkitarm/bin/../lib/gcc/arm-none-eabi/6.3.0/../../../../arm-none-eabi/lib/ds_arm7_crt0.o

.gcc_except_table
                0x037fa7c4        0x0 load address 0x0238298c
 *(.gcc_except_table)
                0x037fa7c4                . = ALIGN (0x4)

.jcr            0x037fa7c4        0x4 load address 0x0238298c
 *(.jcr)
 .jcr           0x037fa7c4        0x0 c:/devkitpro/devkitarm/bin/../lib/gcc/arm-none-eabi/6.3.0/crtbegin.o
 .jcr           0x037fa7c4        0x4 c:/devkitpro/devkitarm/bin/../lib/gcc/arm-none-eabi/6.3.0/crtend.o

.got
 *(.got.plt)
 *(.got)

.data           0x037fa7c8       0x14 load address 0x02382990
                0x037fa7c8                __data_start = ABSOLUTE (.)
 *(.data)
 *(.data.*)
 .data.sleepIsEnabled
                0x037fa7c8        0x1 c:/devkitPro/libnds/lib\libnds7.a(system.o)
                0x037fa7c8                sleepIsEnabled
 .data.range    0x037fa7c9        0x1 c:/devkitPro/libnds/lib\libnds7.a(touch.o)
 .data.fifo_buffer_free
                0x037fa7ca        0x4 c:/devkitPro/libnds/lib\libnds7.a(fifosystem.o)
                0x037fa7ca                fifo_buffer_free
 *fill*         0x037fa7ce        0x2 
 .data.fifo_freewords
                0x037fa7d0        0x4 c:/devkitPro/libnds/lib\libnds7.a(fifosystem.o)
                0x037fa7d0                fifo_freewords
 .data.fifo_receive_queue
                0x037fa7d4        0x4 c:/devkitPro/libnds/lib\libnds7.a(fifosystem.o)
                0x037fa7d4                fifo_receive_queue
 .data.fifo_send_queue
                0x037fa7d8        0x4 c:/devkitPro/libnds/lib\libnds7.a(fifosystem.o)
                0x037fa7d8                fifo_send_queue
 *(.gnu.linkonce.d*)
                0x037fa7dc                . = ALIGN (0x4)
                0x037fa7dc                __data_end = ABSOLUTE (.)

.igot.plt       0x037fa7dc        0x0 load address 0x023829a4
 .igot.plt      0x037fa7dc        0x0 c:/devkitpro/devkitarm/bin/../lib/gcc/arm-none-eabi/6.3.0/../../../../arm-none-eabi/lib/ds_arm7_crt0.o

.tm_clone_table
                0x037fa7dc        0x0 load address 0x023829a4
 .tm_clone_table
                0x037fa7dc        0x0 c:/devkitpro/devkitarm/bin/../lib/gcc/arm-none-eabi/6.3.0/crtbegin.o
 .tm_clone_table
                0x037fa7dc        0x0 c:/devkitpro/devkitarm/bin/../lib/gcc/arm-none-eabi/6.3.0/crtend.o

.bss            0x037fa7dc      0xb5c
                0x037fa7dc                __arm7_end__ = .
                0x037fa7dc                __bss_start = ABSOLUTE (.)
                0x037fa7dc                __bss_start__ = ABSOLUTE (.)
 *(.dynbss)
 *(.gnu.linkonce.b*)
 *(.bss*)
 .bss.completed.6497
                0x037fa7dc        0x1 c:/devkitpro/devkitarm/bin/../lib/gcc/arm-none-eabi/6.3.0/crtbegin.o
 *fill*         0x037fa7dd        0x3 
 .bss.object.6502
                0x037fa7e0       0x18 c:/devkitpro/devkitarm/bin/../lib/gcc/arm-none-eabi/6.3.0/crtbegin.o
 .bss           0x037fa7f8       0x10 main.o
 .bss.penDown.4725
                0x037fa808        0x1 c:/devkitPro/libnds/lib\libnds7.a(input.o)
 *fill*         0x037fa809        0x3 
 .bss.sleepCounter.4726
                0x037fa80c        0x4 c:/devkitPro/libnds/lib\libnds7.a(input.o)
 .bss.__dsimode
                0x037fa810        0x1 c:/devkitPro/libnds/lib\libnds7.a(system.o)
                0x037fa810                __dsimode
 .bss.last_time_touched
                0x037fa811        0x1 c:/devkitPro/libnds/lib\libnds7.a(touch.o)
 .bss.range_counter_1
                0x037fa812        0x1 c:/devkitPro/libnds/lib\libnds7.a(touch.o)
 .bss.range_counter_2
                0x037fa813        0x1 c:/devkitPro/libnds/lib\libnds7.a(touch.o)
 .bss.touchInit
                0x037fa814        0x1 c:/devkitPro/libnds/lib\libnds7.a(touch.o)
 *fill*         0x037fa815        0x3 
 .bss.xoffset   0x037fa818        0x4 c:/devkitPro/libnds/lib\libnds7.a(touch.o)
 .bss.xscale    0x037fa81c        0x4 c:/devkitPro/libnds/lib\libnds7.a(touch.o)
 .bss.yoffset   0x037fa820        0x4 c:/devkitPro/libnds/lib\libnds7.a(touch.o)
 .bss.yscale    0x037fa824        0x4 c:/devkitPro/libnds/lib\libnds7.a(touch.o)
 .bss.__timeout
                0x037fa828        0x4 c:/devkitPro/libnds/lib\libnds7.a(fifosystem.o)
 .bss.processing
                0x037fa82c        0x4 c:/devkitPro/libnds/lib\libnds7.a(fifosystem.o)
                0x037fa82c                processing
 *(COMMON)
 COMMON         0x037fa830      0xa40 c:/devkitPro/libnds/lib\libnds7.a(fifosystem.o)
                0x037fa830                fifo_datamsg_data
                0x037fa870                fifo_buffer
                0x037fb070                fifo_value32_func
                0x037fb0b0                fifo_address_func
                0x037fb0f0                fifo_value32_data
                0x037fb130                fifo_value32_queue
                0x037fb170                fifo_data_queue
                0x037fb1b0                fifo_address_data
                0x037fb1f0                fifo_datamsg_func
                0x037fb230                fifo_address_queue
 COMMON         0x037fb270       0xc8 c:/devkitPro/libnds/lib\libnds7.a(interrupts.o)
                0x037fb270                irqTable
                0x037fb338                . = ALIGN (0x4)
                0x037fb338                __bss_end__ = ABSOLUTE (.)
                0x037fb338                __end__ = ABSOLUTE (.)

.stab
 *(.stab)

.stabstr
 *(.stabstr)

.stab.excl
 *(.stab.excl)

.stab.exclstr
 *(.stab.exclstr)

.stab.index
 *(.stab.index)

.stab.indexstr
 *(.stab.indexstr)

.comment        0x00000000       0x22
 *(.comment)
 .comment       0x00000000       0x22 c:/devkitpro/devkitarm/bin/../lib/gcc/arm-none-eabi/6.3.0/crtbegin.o
                                 0x23 (size before relaxing)
 .comment       0x00000022       0x23 fifocheck.o
 .comment       0x00000022       0x23 main.o
 .comment       0x00000022       0x23 c:/devkitPro/libnds/lib\libnds7.a(clock.o)
 .comment       0x00000022       0x23 c:/devkitPro/libnds/lib\libnds7.a(i2c.twl.o)
 .comment       0x00000022       0x23 c:/devkitPro/libnds/lib\libnds7.a(input.o)
 .comment       0x00000022       0x23 c:/devkitPro/libnds/lib\libnds7.a(system.o)
 .comment       0x00000022       0x23 c:/devkitPro/libnds/lib\libnds7.a(touch.o)
 .comment       0x00000022       0x23 c:/devkitPro/libnds/lib\libnds7.a(userSettings.o)
 .comment       0x00000022       0x23 c:/devkitPro/libnds/lib\libnds7.a(fifosystem.o)
 .comment       0x00000022       0x23 c:/devkitPro/libnds/lib\libnds7.a(interrupts.o)
 .comment       0x00000022       0x23 c:/devkitPro/libnds/lib\libnds7.a(libnds_exit.arm.o)
 .comment       0x00000022       0x23 c:/devkitPro/libnds/lib\libnds7.a(firmware.o)
 .comment       0x00000022       0x23 c:/devkitPro/libnds/lib\libnds7.a(sdmmc.twl.o)
 .comment       0x00000022       0x23 c:/devkitPro/libnds/lib\libnds7.a(spi.o)
 .comment       0x00000022       0x23 c:/devkitPro/libnds/lib\libnds7.a(systemShutDown.o)
 .comment       0x00000022       0x23 c:/devkitpro/devkitarm/bin/../lib/gcc/arm-none-eabi/6.3.0/../../../../arm-none-eabi/lib\libg.a(lib_a-init.o)
 .comment       0x00000022       0x23 c:/devkitpro/devkitarm/bin/../lib/gcc/arm-none-eabi/6.3.0/../../../../arm-none-eabi/lib\libg.a(lib_a-memcmp.o)
 .comment       0x00000022       0x23 c:/devkitpro/devkitarm/bin/../lib/gcc/arm-none-eabi/6.3.0/../../../../arm-none-eabi/lib\libg.a(lib_a-memcpy-stub.o)
 .comment       0x00000022       0x23 c:/devkitpro/devkitarm/bin/../lib/gcc/arm-none-eabi/6.3.0/../../../../arm-none-eabi/lib\libg.a(lib_a-memset.o)
 .comment       0x00000022       0x23 c:/devkitpro/devkitarm/bin/../lib/gcc/arm-none-eabi/6.3.0/crtend.o

.ARM.attributes
                0x00000000       0x2d
 .ARM.attributes
                0x00000000       0x16 c:/devkitpro/devkitarm/bin/../lib/gcc/arm-none-eabi/6.3.0/../../../../arm-none-eabi/lib/ds_arm7_crt0.o
 .ARM.attributes
                0x00000016       0x16 c:/devkitpro/devkitarm/bin/../lib/gcc/arm-none-eabi/6.3.0/crti.o
 .ARM.attributes
                0x0000002c       0x30 c:/devkitpro/devkitarm/bin/../lib/gcc/arm-none-eabi/6.3.0/crtbegin.o
 .ARM.attributes
                0x0000005c       0x2c fifocheck.o
 .ARM.attributes
                0x00000088       0x2c main.o
 .ARM.attributes
                0x000000b4       0x21 mpu_setup.o
 .ARM.attributes
                0x000000d5       0x2c c:/devkitPro/libnds/lib\libnds7.a(clock.o)
 .ARM.attributes
                0x00000101       0x2c c:/devkitPro/libnds/lib\libnds7.a(i2c.twl.o)
 .ARM.attributes
                0x0000012d       0x2c c:/devkitPro/libnds/lib\libnds7.a(input.o)
 .ARM.attributes
                0x00000159       0x2c c:/devkitPro/libnds/lib\libnds7.a(system.o)
 .ARM.attributes
                0x00000185       0x2c c:/devkitPro/libnds/lib\libnds7.a(touch.o)
 .ARM.attributes
                0x000001b1       0x2c c:/devkitPro/libnds/lib\libnds7.a(userSettings.o)
 .ARM.attributes
                0x000001dd       0x2c c:/devkitPro/libnds/lib\libnds7.a(fifosystem.o)
 .ARM.attributes
                0x00000209       0x2c c:/devkitPro/libnds/lib\libnds7.a(interrupts.o)
 .ARM.attributes
                0x00000235       0x2c c:/devkitPro/libnds/lib\libnds7.a(libnds_exit.arm.o)
 .ARM.attributes
                0x00000261       0x20 c:/devkitPro/libnds/lib\libnds7.a(intrwait.o)
 .ARM.attributes
                0x00000281       0x20 c:/devkitPro/libnds/lib\libnds7.a(biosCalls.o)
 .ARM.attributes
                0x000002a1       0x20 c:/devkitPro/libnds/lib\libnds7.a(debugprint.o)
 .ARM.attributes
                0x000002c1       0x20 c:/devkitPro/libnds/lib\libnds7.a(interruptDispatcher.o)
 .ARM.attributes
                0x000002e1       0x20 c:/devkitPro/libnds/lib\libnds7.a(swiSoftReset.o)
 .ARM.attributes
                0x00000301       0x2c c:/devkitPro/libnds/lib\libnds7.a(firmware.o)
 .ARM.attributes
                0x0000032d       0x2c c:/devkitPro/libnds/lib\libnds7.a(sdmmc.twl.o)
 .ARM.attributes
                0x00000359       0x2c c:/devkitPro/libnds/lib\libnds7.a(spi.o)
 .ARM.attributes
                0x00000385       0x2c c:/devkitPro/libnds/lib\libnds7.a(systemShutDown.o)
 .ARM.attributes
                0x000003b1       0x16 c:/devkitpro/devkitarm/bin/../lib/gcc/arm-none-eabi/6.3.0\libgcc.a(_thumb1_case_uqi.o)
 .ARM.attributes
                0x000003c7       0x18 c:/devkitpro/devkitarm/bin/../lib/gcc/arm-none-eabi/6.3.0\libgcc.a(_divsi3.o)
 .ARM.attributes
                0x000003df       0x18 c:/devkitpro/devkitarm/bin/../lib/gcc/arm-none-eabi/6.3.0\libgcc.a(_dvmd_tls.o)
 .ARM.attributes
                0x000003f7       0x30 c:/devkitpro/devkitarm/bin/../lib/gcc/arm-none-eabi/6.3.0/../../../../arm-none-eabi/lib\libg.a(lib_a-init.o)
 .ARM.attributes
                0x00000427       0x30 c:/devkitpro/devkitarm/bin/../lib/gcc/arm-none-eabi/6.3.0/../../../../arm-none-eabi/lib\libg.a(lib_a-memcmp.o)
 .ARM.attributes
                0x00000457       0x30 c:/devkitpro/devkitarm/bin/../lib/gcc/arm-none-eabi/6.3.0/../../../../arm-none-eabi/lib\libg.a(lib_a-memcpy-stub.o)
 .ARM.attributes
                0x00000487       0x30 c:/devkitpro/devkitarm/bin/../lib/gcc/arm-none-eabi/6.3.0/../../../../arm-none-eabi/lib\libg.a(lib_a-memset.o)
 .ARM.attributes
                0x000004b7       0x30 c:/devkitpro/devkitarm/bin/../lib/gcc/arm-none-eabi/6.3.0/crtend.o
 .ARM.attributes
                0x000004e7       0x18 c:/devkitpro/devkitarm/bin/../lib/gcc/arm-none-eabi/6.3.0/crtn.o

.debug
 *(.debug)

.line
 *(.line)

.debug_srcinfo
 *(.debug_srcinfo)

.debug_sfnames
 *(.debug_sfnames)

.debug_aranges  0x00000000      0x620
 *(.debug_aranges)
 .debug_aranges
                0x00000000       0x20 fifocheck.o
 .debug_aranges
                0x00000020       0x28 main.o
 .debug_aranges
                0x00000048       0x20 mpu_setup.o
 .debug_aranges
                0x00000068       0x70 c:/devkitPro/libnds/lib\libnds7.a(clock.o)
 .debug_aranges
                0x000000d8       0x68 c:/devkitPro/libnds/lib\libnds7.a(i2c.twl.o)
 .debug_aranges
                0x00000140       0x20 c:/devkitPro/libnds/lib\libnds7.a(input.o)
 .debug_aranges
                0x00000160       0x38 c:/devkitPro/libnds/lib\libnds7.a(system.o)
 .debug_aranges
                0x00000198       0x68 c:/devkitPro/libnds/lib\libnds7.a(touch.o)
 .debug_aranges
                0x00000200       0x20 c:/devkitPro/libnds/lib\libnds7.a(userSettings.o)
 .debug_aranges
                0x00000220       0xd0 c:/devkitPro/libnds/lib\libnds7.a(fifosystem.o)
 .debug_aranges
                0x000002f0       0x90 c:/devkitPro/libnds/lib\libnds7.a(interrupts.o)
 .debug_aranges
                0x00000380       0x28 c:/devkitPro/libnds/lib\libnds7.a(libnds_exit.arm.o)
 .debug_aranges
                0x000003a8       0x28 c:/devkitPro/libnds/lib\libnds7.a(intrwait.o)
 .debug_aranges
                0x000003d0       0xd8 c:/devkitPro/libnds/lib\libnds7.a(biosCalls.o)
 .debug_aranges
                0x000004a8       0x20 c:/devkitPro/libnds/lib\libnds7.a(debugprint.o)
 .debug_aranges
                0x000004c8       0x20 c:/devkitPro/libnds/lib\libnds7.a(interruptDispatcher.o)
 .debug_aranges
                0x000004e8       0x20 c:/devkitPro/libnds/lib\libnds7.a(swiSoftReset.o)
 .debug_aranges
                0x00000508       0x40 c:/devkitPro/libnds/lib\libnds7.a(firmware.o)
 .debug_aranges
                0x00000548       0x90 c:/devkitPro/libnds/lib\libnds7.a(sdmmc.twl.o)
 .debug_aranges
                0x000005d8       0x28 c:/devkitPro/libnds/lib\libnds7.a(spi.o)
 .debug_aranges
                0x00000600       0x20 c:/devkitPro/libnds/lib\libnds7.a(systemShutDown.o)

.debug_pubnames
 *(.debug_pubnames)

.debug_info     0x00000000     0xbfaf
 *(.debug_info)
 .debug_info    0x00000000      0x1fd fifocheck.o
 .debug_info    0x000001fd      0xdaa main.o
 .debug_info    0x00000fa7       0xb7 mpu_setup.o
 .debug_info    0x0000105e     0x135d c:/devkitPro/libnds/lib\libnds7.a(clock.o)
 .debug_info    0x000023bb      0x419 c:/devkitPro/libnds/lib\libnds7.a(i2c.twl.o)
 .debug_info    0x000027d4      0x5ce c:/devkitPro/libnds/lib\libnds7.a(input.o)
 .debug_info    0x00002da2      0x727 c:/devkitPro/libnds/lib\libnds7.a(system.o)
 .debug_info    0x000034c9     0x159c c:/devkitPro/libnds/lib\libnds7.a(touch.o)
 .debug_info    0x00004a65      0xdd1 c:/devkitPro/libnds/lib\libnds7.a(userSettings.o)
 .debug_info    0x00005836     0x1bf5 c:/devkitPro/libnds/lib\libnds7.a(fifosystem.o)
 .debug_info    0x0000742b      0xb9a c:/devkitPro/libnds/lib\libnds7.a(interrupts.o)
 .debug_info    0x00007fc5      0xb62 c:/devkitPro/libnds/lib\libnds7.a(libnds_exit.arm.o)
 .debug_info    0x00008b27       0xba c:/devkitPro/libnds/lib\libnds7.a(intrwait.o)
 .debug_info    0x00008be1       0xbd c:/devkitPro/libnds/lib\libnds7.a(biosCalls.o)
 .debug_info    0x00008c9e       0xc2 c:/devkitPro/libnds/lib\libnds7.a(debugprint.o)
 .debug_info    0x00008d60       0xcb c:/devkitPro/libnds/lib\libnds7.a(interruptDispatcher.o)
 .debug_info    0x00008e2b       0xc4 c:/devkitPro/libnds/lib\libnds7.a(swiSoftReset.o)
 .debug_info    0x00008eef     0x11ed c:/devkitPro/libnds/lib\libnds7.a(firmware.o)
 .debug_info    0x0000a0dc     0x19a9 c:/devkitPro/libnds/lib\libnds7.a(sdmmc.twl.o)
 .debug_info    0x0000ba85      0x2d7 c:/devkitPro/libnds/lib\libnds7.a(spi.o)
 .debug_info    0x0000bd5c      0x253 c:/devkitPro/libnds/lib\libnds7.a(systemShutDown.o)

.debug_abbrev   0x00000000     0x27ed
 *(.debug_abbrev)
 .debug_abbrev  0x00000000       0xf0 fifocheck.o
 .debug_abbrev  0x000000f0      0x2dc main.o
 .debug_abbrev  0x000003cc       0x14 mpu_setup.o
 .debug_abbrev  0x000003e0      0x35e c:/devkitPro/libnds/lib\libnds7.a(clock.o)
 .debug_abbrev  0x0000073e      0x1d0 c:/devkitPro/libnds/lib\libnds7.a(i2c.twl.o)
 .debug_abbrev  0x0000090e      0x1b8 c:/devkitPro/libnds/lib\libnds7.a(input.o)
 .debug_abbrev  0x00000ac6      0x1cf c:/devkitPro/libnds/lib\libnds7.a(system.o)
 .debug_abbrev  0x00000c95      0x453 c:/devkitPro/libnds/lib\libnds7.a(touch.o)
 .debug_abbrev  0x000010e8      0x21f c:/devkitPro/libnds/lib\libnds7.a(userSettings.o)
 .debug_abbrev  0x00001307      0x506 c:/devkitPro/libnds/lib\libnds7.a(fifosystem.o)
 .debug_abbrev  0x0000180d      0x319 c:/devkitPro/libnds/lib\libnds7.a(interrupts.o)
 .debug_abbrev  0x00001b26      0x248 c:/devkitPro/libnds/lib\libnds7.a(libnds_exit.arm.o)
 .debug_abbrev  0x00001d6e       0x12 c:/devkitPro/libnds/lib\libnds7.a(intrwait.o)
 .debug_abbrev  0x00001d80       0x12 c:/devkitPro/libnds/lib\libnds7.a(biosCalls.o)
 .debug_abbrev  0x00001d92       0x14 c:/devkitPro/libnds/lib\libnds7.a(debugprint.o)
 .debug_abbrev  0x00001da6       0x14 c:/devkitPro/libnds/lib\libnds7.a(interruptDispatcher.o)
 .debug_abbrev  0x00001dba       0x14 c:/devkitPro/libnds/lib\libnds7.a(swiSoftReset.o)
 .debug_abbrev  0x00001dce      0x36b c:/devkitPro/libnds/lib\libnds7.a(firmware.o)
 .debug_abbrev  0x00002139      0x41a c:/devkitPro/libnds/lib\libnds7.a(sdmmc.twl.o)
 .debug_abbrev  0x00002553      0x19d c:/devkitPro/libnds/lib\libnds7.a(spi.o)
 .debug_abbrev  0x000026f0       0xfd c:/devkitPro/libnds/lib\libnds7.a(systemShutDown.o)

.debug_line     0x00000000     0x37ad
 *(.debug_line)
 .debug_line    0x00000000      0x157 fifocheck.o
 .debug_line    0x00000157      0x252 main.o
 .debug_line    0x000003a9       0x89 mpu_setup.o
 .debug_line    0x00000432      0x464 c:/devkitPro/libnds/lib\libnds7.a(clock.o)
 .debug_line    0x00000896      0x2bd c:/devkitPro/libnds/lib\libnds7.a(i2c.twl.o)
 .debug_line    0x00000b53      0x221 c:/devkitPro/libnds/lib\libnds7.a(input.o)
 .debug_line    0x00000d74      0x2d2 c:/devkitPro/libnds/lib\libnds7.a(system.o)
 .debug_line    0x00001046      0x51e c:/devkitPro/libnds/lib\libnds7.a(touch.o)
 .debug_line    0x00001564      0x265 c:/devkitPro/libnds/lib\libnds7.a(userSettings.o)
 .debug_line    0x000017c9      0x6dc c:/devkitPro/libnds/lib\libnds7.a(fifosystem.o)
 .debug_line    0x00001ea5      0x435 c:/devkitPro/libnds/lib\libnds7.a(interrupts.o)
 .debug_line    0x000022da      0x297 c:/devkitPro/libnds/lib\libnds7.a(libnds_exit.arm.o)
 .debug_line    0x00002571       0xa6 c:/devkitPro/libnds/lib\libnds7.a(intrwait.o)
 .debug_line    0x00002617      0x211 c:/devkitPro/libnds/lib\libnds7.a(biosCalls.o)
 .debug_line    0x00002828       0xa0 c:/devkitPro/libnds/lib\libnds7.a(debugprint.o)
 .debug_line    0x000028c8       0xce c:/devkitPro/libnds/lib\libnds7.a(interruptDispatcher.o)
 .debug_line    0x00002996       0x91 c:/devkitPro/libnds/lib\libnds7.a(swiSoftReset.o)
 .debug_line    0x00002a27      0x3c6 c:/devkitPro/libnds/lib\libnds7.a(firmware.o)
 .debug_line    0x00002ded      0x6a1 c:/devkitPro/libnds/lib\libnds7.a(sdmmc.twl.o)
 .debug_line    0x0000348e      0x1e4 c:/devkitPro/libnds/lib\libnds7.a(spi.o)
 .debug_line    0x00003672      0x13b c:/devkitPro/libnds/lib\libnds7.a(systemShutDown.o)

.debug_frame    0x00000000      0xbb4
 *(.debug_frame)
 .debug_frame   0x00000000       0x2c fifocheck.o
 .debug_frame   0x0000002c       0x80 main.o
 .debug_frame   0x000000ac      0x150 c:/devkitPro/libnds/lib\libnds7.a(clock.o)
 .debug_frame   0x000001fc      0x104 c:/devkitPro/libnds/lib\libnds7.a(i2c.twl.o)
 .debug_frame   0x00000300       0x30 c:/devkitPro/libnds/lib\libnds7.a(input.o)
 .debug_frame   0x00000330       0x70 c:/devkitPro/libnds/lib\libnds7.a(system.o)
 .debug_frame   0x000003a0      0x120 c:/devkitPro/libnds/lib\libnds7.a(touch.o)
 .debug_frame   0x000004c0       0x34 c:/devkitPro/libnds/lib\libnds7.a(userSettings.o)
 .debug_frame   0x000004f4      0x280 c:/devkitPro/libnds/lib\libnds7.a(fifosystem.o)
 .debug_frame   0x00000774      0x170 c:/devkitPro/libnds/lib\libnds7.a(interrupts.o)
 .debug_frame   0x000008e4       0x3c c:/devkitPro/libnds/lib\libnds7.a(libnds_exit.arm.o)
 .debug_frame   0x00000920       0x9c c:/devkitPro/libnds/lib\libnds7.a(firmware.o)
 .debug_frame   0x000009bc      0x188 c:/devkitPro/libnds/lib\libnds7.a(sdmmc.twl.o)
 .debug_frame   0x00000b44       0x48 c:/devkitPro/libnds/lib\libnds7.a(spi.o)
 .debug_frame   0x00000b8c       0x28 c:/devkitPro/libnds/lib\libnds7.a(systemShutDown.o)

.debug_str      0x00000000     0x292b
 *(.debug_str)
 .debug_str     0x00000000      0x269 fifocheck.o
                                0x2bb (size before relaxing)
 .debug_str     0x00000269      0x8b0 main.o
                                0xb37 (size before relaxing)
 .debug_str     0x00000b19      0x716 c:/devkitPro/libnds/lib\libnds7.a(clock.o)
                                0x9ca (size before relaxing)
 .debug_str     0x0000122f      0x124 c:/devkitPro/libnds/lib\libnds7.a(i2c.twl.o)
                                0x294 (size before relaxing)
 .debug_str     0x00001353      0x27d c:/devkitPro/libnds/lib\libnds7.a(input.o)
                                0x512 (size before relaxing)
 .debug_str     0x000015d0      0x25b c:/devkitPro/libnds/lib\libnds7.a(system.o)
                                0x685 (size before relaxing)
 .debug_str     0x0000182b      0x354 c:/devkitPro/libnds/lib\libnds7.a(touch.o)
                                0x9f9 (size before relaxing)
 .debug_str     0x00001b7f       0xf7 c:/devkitPro/libnds/lib\libnds7.a(userSettings.o)
                                0x7f8 (size before relaxing)
 .debug_str     0x00001c76      0x540 c:/devkitPro/libnds/lib\libnds7.a(fifosystem.o)
                                0xd1b (size before relaxing)
 .debug_str     0x000021b6      0x1de c:/devkitPro/libnds/lib\libnds7.a(interrupts.o)
                                0x6ed (size before relaxing)
 .debug_str     0x00002394      0x132 c:/devkitPro/libnds/lib\libnds7.a(libnds_exit.arm.o)
                                0x76f (size before relaxing)
 .debug_str     0x000024c6       0xc1 c:/devkitPro/libnds/lib\libnds7.a(firmware.o)
                                0x8fc (size before relaxing)
 .debug_str     0x00002587      0x2f9 c:/devkitPro/libnds/lib\libnds7.a(sdmmc.twl.o)
                                0x801 (size before relaxing)
 .debug_str     0x00002880       0x50 c:/devkitPro/libnds/lib\libnds7.a(spi.o)
                                0x31a (size before relaxing)
 .debug_str     0x000028d0       0x5b c:/devkitPro/libnds/lib\libnds7.a(systemShutDown.o)
                                0x392 (size before relaxing)

.debug_loc      0x00000000     0x41bc
 *(.debug_loc)
 .debug_loc     0x00000000      0x18a main.o
 .debug_loc     0x0000018a      0x627 c:/devkitPro/libnds/lib\libnds7.a(clock.o)
 .debug_loc     0x000007b1      0x1b6 c:/devkitPro/libnds/lib\libnds7.a(i2c.twl.o)
 .debug_loc     0x00000967       0x29 c:/devkitPro/libnds/lib\libnds7.a(input.o)
 .debug_loc     0x00000990      0x224 c:/devkitPro/libnds/lib\libnds7.a(system.o)
 .debug_loc     0x00000bb4      0xc4a c:/devkitPro/libnds/lib\libnds7.a(touch.o)
 .debug_loc     0x000017fe       0xbb c:/devkitPro/libnds/lib\libnds7.a(userSettings.o)
 .debug_loc     0x000018b9      0xedb c:/devkitPro/libnds/lib\libnds7.a(fifosystem.o)
 .debug_loc     0x00002794      0x379 c:/devkitPro/libnds/lib\libnds7.a(interrupts.o)
 .debug_loc     0x00002b0d       0x3f c:/devkitPro/libnds/lib\libnds7.a(libnds_exit.arm.o)
 .debug_loc     0x00002b4c      0x38a c:/devkitPro/libnds/lib\libnds7.a(firmware.o)
 .debug_loc     0x00002ed6     0x120b c:/devkitPro/libnds/lib\libnds7.a(sdmmc.twl.o)
 .debug_loc     0x000040e1       0xdb c:/devkitPro/libnds/lib\libnds7.a(spi.o)

.debug_macinfo
 *(.debug_macinfo)

.debug_weaknames
 *(.debug_weaknames)

.debug_funcnames
 *(.debug_funcnames)

.debug_typenames
 *(.debug_typenames)

.debug_varnames
 *(.debug_varnames)
LOAD c:/devkitpro/devkitarm/bin/../lib/gcc/arm-none-eabi/6.3.0/../../../../arm-none-eabi/lib/ds_arm7_crt0.o
LOAD c:/devkitpro/devkitarm/bin/../lib/gcc/arm-none-eabi/6.3.0/crti.o
LOAD c:/devkitpro/devkitarm/bin/../lib/gcc/arm-none-eabi/6.3.0/crtbegin.o
LOAD fifocheck.o
LOAD main.o
LOAD mpu_setup.o
LOAD c:/devkitPro/libnds/lib\libnds7.a
START GROUP
LOAD c:/devkitpro/devkitarm/bin/../lib/gcc/arm-none-eabi/6.3.0\libgcc.a
LOAD c:/devkitpro/devkitarm/bin/../lib/gcc/arm-none-eabi/6.3.0/../../../../arm-none-eabi/lib\libg.a
LOAD c:/devkitpro/devkitarm/bin/../lib/gcc/arm-none-eabi/6.3.0/../../../../arm-none-eabi/lib\libc.a
LOAD c:/devkitpro/devkitarm/bin/../lib/gcc/arm-none-eabi/6.3.0/../../../../arm-none-eabi/lib\libsysbase.a
END GROUP
LOAD c:/devkitpro/devkitarm/bin/../lib/gcc/arm-none-eabi/6.3.0/crtend.o
LOAD c:/devkitpro/devkitarm/bin/../lib/gcc/arm-none-eabi/6.3.0/crtn.o
OUTPUT(c:/Users/stoke/OneDrive/Documents/GitHub/nds-bootstrap/arm7/nds-bootstrap.elf elf32-littlearm)

.debug_ranges   0x00000000      0xad0
 .debug_ranges  0x00000000       0x50 main.o
 .debug_ranges  0x00000050       0x78 c:/devkitPro/libnds/lib\libnds7.a(clock.o)
 .debug_ranges  0x000000c8       0x58 c:/devkitPro/libnds/lib\libnds7.a(i2c.twl.o)
 .debug_ranges  0x00000120       0x10 c:/devkitPro/libnds/lib\libnds7.a(input.o)
 .debug_ranges  0x00000130       0x58 c:/devkitPro/libnds/lib\libnds7.a(system.o)
 .debug_ranges  0x00000188       0xb8 c:/devkitPro/libnds/lib\libnds7.a(touch.o)
 .debug_ranges  0x00000240       0x10 c:/devkitPro/libnds/lib\libnds7.a(userSettings.o)
 .debug_ranges  0x00000250      0x258 c:/devkitPro/libnds/lib\libnds7.a(fifosystem.o)
 .debug_ranges  0x000004a8      0x160 c:/devkitPro/libnds/lib\libnds7.a(interrupts.o)
 .debug_ranges  0x00000608       0x18 c:/devkitPro/libnds/lib\libnds7.a(libnds_exit.arm.o)
 .debug_ranges  0x00000620       0x20 c:/devkitPro/libnds/lib\libnds7.a(intrwait.o)
 .debug_ranges  0x00000640       0xd0 c:/devkitPro/libnds/lib\libnds7.a(biosCalls.o)
 .debug_ranges  0x00000710       0xb8 c:/devkitPro/libnds/lib\libnds7.a(firmware.o)
 .debug_ranges  0x000007c8      0x2b0 c:/devkitPro/libnds/lib\libnds7.a(sdmmc.twl.o)
 .debug_ranges  0x00000a78       0x48 c:/devkitPro/libnds/lib\libnds7.a(spi.o)
 .debug_ranges  0x00000ac0       0x10 c:/devkitPro/libnds/lib\libnds7.a(systemShutDown.o)
