Archive member included to satisfy reference by file (symbol)

c:/devkitpro/devkitarm/bin/../lib/gcc/arm-none-eabi/6.3.0\libgcc.a(_udivsi3.o)
                              fat.o (__aeabi_uidiv)
c:/devkitpro/devkitarm/bin/../lib/gcc/arm-none-eabi/6.3.0\libgcc.a(_divsi3.o)
                              fat.o (__aeabi_idiv)
c:/devkitpro/devkitarm/bin/../lib/gcc/arm-none-eabi/6.3.0\libgcc.a(_dvmd_tls.o)
                              c:/devkitpro/devkitarm/bin/../lib/gcc/arm-none-eabi/6.3.0\libgcc.a(_udivsi3.o) (__aeabi_idiv0)
c:/devkitpro/devkitarm/bin/../lib/gcc/arm-none-eabi/6.3.0/../../../../arm-none-eabi/lib\libg.a(lib_a-memcpy-stub.o)
                              fat.o (memcpy)
c:/devkitpro/devkitarm/bin/../lib/gcc/arm-none-eabi/6.3.0/../../../../arm-none-eabi/lib\libg.a(lib_a-strlen-stub.o)
                              debugToFile.o (strlen)

Allocating common symbols
Common symbol       size              file

discFileSystem      0x1               fat.o
discBytePerClus     0x4               fat.o
discData            0x4               fat.o
discRootDir         0x4               fat.o
discRootDirClus     0x4               fat.o
discBytePerSec      0x4               fat.o
discSecPerFAT       0x4               fat.o
discFAT             0x4               fat.o
globalBuffer        0x200             fat.o
discSecPerClus      0x4               fat.o
discNumSec          0x4               fat.o

Memory Configuration

Name             Origin             Length             Attributes
vram             0x03780000         0x00004000
*default*        0x00000000         0xffffffff

Linker script and memory map

LOAD debugToFile.o
LOAD dldiEngine.o
LOAD fat.o
LOAD sdmmc.o
LOAD bios.o
LOAD debugprint.o
LOAD sdmmc_engine_header.o
START GROUP
LOAD c:/devkitpro/devkitarm/bin/../lib/gcc/arm-none-eabi/6.3.0\libgcc.a
LOAD c:/devkitpro/devkitarm/bin/../lib/gcc/arm-none-eabi/6.3.0/../../../../arm-none-eabi/lib\libg.a
LOAD c:/devkitpro/devkitarm/bin/../lib/gcc/arm-none-eabi/6.3.0/../../../../arm-none-eabi/lib\libc.a
LOAD c:/devkitpro/devkitarm/bin/../lib/gcc/arm-none-eabi/6.3.0/../../../../arm-none-eabi/lib\libsysbase.a
END GROUP
                0x03780000                __vram_start = ORIGIN (vram)
                0x03784000                __vram_top = (ORIGIN (vram) + LENGTH (vram))
                0x03783fa0                __sp_irq = (__vram_top - 0x60)
                0x03783ea0                __sp_svc = (__sp_irq - 0x100)
                0x03783da0                __sp_usr = (__sp_svc - 0x100)
                0x03783ff8                __irq_flags = (__vram_top - 0x8)
                0x03783ffc                __irq_vector = (__vram_top - 0x4)

.init           0x03780000       0x94
                0x03780000                __text_start = .
 *(.init)
 .init          0x03780000       0x94 sdmmc_engine_header.o
                0x03780000                sdmmc_engine_size
                0x03780004                commandAddr
                0x03780008                irqHandler
                0x0378000c                irqSig
                0x03780010                sdmmc_engine_start
                0x03780094                sdmmc_engine_end
                0x03780094                . = ALIGN (0x4)

.plt
 *(.plt)

.text           0x037800a0     0x2170
 *(.text*)
 .text          0x037800a0      0x134 debugToFile.o
                0x037800a0                enableDebug
                0x037800e0                dbg_printf
                0x0378015c                tohex
                0x037801c4                dbg_hexa
 .text          0x037801d4      0x410 dldiEngine.o
                0x03780250                sendValue32
                0x03780298                getDatamsg
                0x037802dc                sdmmcCustomValueHandler
                0x03780370                sdmmcCustomMsgHandler
                0x03780454                runSdMmcEngineCheck
                0x037804f4                SyncHandler
                0x0378050c                checkIRQ_IPC_SYNC
                0x03780524                myIrqHandler
                0x03780548                myIrqEnable
 .text          0x037805e4      0xe34 fat.o
                0x037805e4                FAT_ClustToSect
                0x03780608                FAT_NextCluster
                0x0378076c                ucase
                0x03780780                FAT_InitFiles
                0x03780a94                getBootFileCluster
                0x03780dd4                getFileFromCluster
                0x03780de8                fileRead
                0x03781080                fileWrite
                0x037813b0                buildFatTableCache
 .text          0x03781418      0x950 sdmmc.o
                0x03781418                startup
                0x03781434                isInserted
                0x03781450                clearStatus
                0x0378146c                shutdown
                0x03781488                geterror
                0x03781498                setTarget
                0x0378151c                sdmmc_send_command
                0x037817c4                sdmmc_cardinserted
                0x037817cc                sdmmc_controller_init
                0x0378191c                sdmmc_sdcard_init
                0x03781be0                sdmmc_sdcard_readsectors
                0x03781c68                readSectors
                0x03781ca4                sdmmc_sdcard_writesectors
                0x03781d2c                writeSectors
 *fill*         0x03781d68        0x8 ff
 .text          0x03781d70        0x4 bios.o
                0x03781d70                swiDelay
 .text          0x03781d74       0xa4 debugprint.o
                0x03781d74                nocashWrite
                0x03781d76                nocashMessage
 .text          0x03781e18        0x0 sdmmc_engine_header.o
 .text          0x03781e18      0x114 c:/devkitpro/devkitarm/bin/../lib/gcc/arm-none-eabi/6.3.0\libgcc.a(_udivsi3.o)
                0x03781e18                __aeabi_uidiv
                0x03781e18                __udivsi3
                0x03781f0c                __aeabi_uidivmod
 .text          0x03781f2c      0x148 c:/devkitpro/devkitarm/bin/../lib/gcc/arm-none-eabi/6.3.0\libgcc.a(_divsi3.o)
                0x03781f2c                __divsi3
                0x03781f2c                __aeabi_idiv
                0x03782054                __aeabi_idivmod
 .text          0x03782074        0x4 c:/devkitpro/devkitarm/bin/../lib/gcc/arm-none-eabi/6.3.0\libgcc.a(_dvmd_tls.o)
                0x03782074                __aeabi_idiv0
                0x03782074                __aeabi_ldiv0
 .text          0x03782078        0x0 c:/devkitpro/devkitarm/bin/../lib/gcc/arm-none-eabi/6.3.0/../../../../arm-none-eabi/lib\libg.a(lib_a-memcpy-stub.o)
 .text.memcpy   0x03782078      0x114 c:/devkitpro/devkitarm/bin/../lib/gcc/arm-none-eabi/6.3.0/../../../../arm-none-eabi/lib\libg.a(lib_a-memcpy-stub.o)
                0x03782078                memcpy
 .text          0x0378218c        0x0 c:/devkitpro/devkitarm/bin/../lib/gcc/arm-none-eabi/6.3.0/../../../../arm-none-eabi/lib\libg.a(lib_a-strlen-stub.o)
 .text.strlen   0x0378218c       0x60 c:/devkitpro/devkitarm/bin/../lib/gcc/arm-none-eabi/6.3.0/../../../../arm-none-eabi/lib\libg.a(lib_a-strlen-stub.o)
                0x0378218c                strlen
 *fill*         0x037821ec        0x4 ff
 .text.strlen.__stub
                0x037821f0       0x18 linker stubs
 *(.stub)
 *(.gnu.warning)
 *(.gnu.linkonce.t*)
 *(.glue_7)
 .glue_7        0x03782210        0x0 linker stubs
 *(.glue_7t)
 .glue_7t       0x03782210        0x0 linker stubs
                0x03782210                . = ALIGN (0x4)

.vfp11_veneer   0x03782210        0x0
 .vfp11_veneer  0x03782210        0x0 linker stubs

.v4_bx          0x03782210        0x0
 .v4_bx         0x03782210        0x0 linker stubs

.iplt           0x03782210        0x0
 .iplt          0x03782210        0x0 debugToFile.o

.fini
 *(.fini)
                0x03782210                __text_end = .

.rodata         0x03782210      0x278
 *(.rodata)
 .rodata        0x03782210       0x20 sdmmc.o
                0x03782210                __myio_dsisd
 *all.rodata*(*)
 *(.roda)
 *(.rodata.*)
 .rodata.str1.4
                0x03782230       0xf1 dldiEngine.o
 *fill*         0x03782321        0x3 ff
 .rodata.str1.4
                0x03782324       0xe0 fat.o
 .rodata.str1.4
                0x03782404       0x84 sdmmc.o
                                 0x82 (size before relaxing)
 *(.gnu.linkonce.r*)
                0x03782488                . = ALIGN (0x4)

.rel.dyn        0x03782488        0x0
 .rel.iplt      0x03782488        0x0 debugToFile.o

.ARM.extab
 *(.ARM.extab* .gnu.linkonce.armextab.*)
                0x03782488                __exidx_start = .

.ARM.exidx
 *(.ARM.exidx* .gnu.linkonce.armexidx.*)
                0x03782488                __exidx_end = .
                0x03782488                . = ALIGN (0x4)
                [!provide]                PROVIDE (__preinit_array_start, .)

.preinit_array
 *(.preinit_array)
                [!provide]                PROVIDE (__preinit_array_end, .)
                [!provide]                PROVIDE (__init_array_start, .)

.init_array
 *(.init_array)
                [!provide]                PROVIDE (__init_array_end, .)
                [!provide]                PROVIDE (__fini_array_start, .)

.fini_array
 *(.fini_array)
                [!provide]                PROVIDE (__fini_array_end, .)

.ctors          0x03782488        0x0
 *crtbegin.o(.ctors)
 *(EXCLUDE_FILE(*crtend.o) .ctors)
 *(SORT(.ctors.*))
 *(.ctors)
                0x03782488                . = ALIGN (0x4)

.dtors          0x03782488        0x0
 *crtbegin.o(.dtors)
 *(EXCLUDE_FILE(*crtend.o) .dtors)
 *(SORT(.dtors.*))
 *(.dtors)
                0x03782488                . = ALIGN (0x4)

.eh_frame       0x03782488        0x0
 *(.eh_frame)
                0x03782488                . = ALIGN (0x4)

.gcc_except_table
                0x03782488        0x0
 *(.gcc_except_table)
                0x03782488                . = ALIGN (0x4)

.jcr
 *(.jcr)

.got
 *(.got.plt)
 *(.got)

.vram           0x03782488        0x0
                0x03782488                __vram_start = ABSOLUTE (.)
 *(.vram)
 *vram.*(.text)
                0x03782488                . = ALIGN (0x4)
                0x03782488                __vram_end = ABSOLUTE (.)

.data           0x03782488        0x4
                0x03782488                __data_start = ABSOLUTE (.)
 *(.data)
 .data          0x03782488        0x0 debugToFile.o
 .data          0x03782488        0x0 dldiEngine.o
 .data          0x03782488        0x4 fat.o
 .data          0x0378248c        0x0 sdmmc.o
 .data          0x0378248c        0x0 bios.o
 .data          0x0378248c        0x0 debugprint.o
 .data          0x0378248c        0x0 sdmmc_engine_header.o
 .data          0x0378248c        0x0 c:/devkitpro/devkitarm/bin/../lib/gcc/arm-none-eabi/6.3.0\libgcc.a(_udivsi3.o)
 .data          0x0378248c        0x0 c:/devkitpro/devkitarm/bin/../lib/gcc/arm-none-eabi/6.3.0\libgcc.a(_divsi3.o)
 .data          0x0378248c        0x0 c:/devkitpro/devkitarm/bin/../lib/gcc/arm-none-eabi/6.3.0\libgcc.a(_dvmd_tls.o)
 .data          0x0378248c        0x0 c:/devkitpro/devkitarm/bin/../lib/gcc/arm-none-eabi/6.3.0/../../../../arm-none-eabi/lib\libg.a(lib_a-memcpy-stub.o)
 .data          0x0378248c        0x0 c:/devkitpro/devkitarm/bin/../lib/gcc/arm-none-eabi/6.3.0/../../../../arm-none-eabi/lib\libg.a(lib_a-strlen-stub.o)
 *(.data.*)
 *(.gnu.linkonce.d*)
                0x0378248c                . = ALIGN (0x4)
                0x0378248c                __data_end = ABSOLUTE (.)

.igot.plt       0x0378248c        0x0
 .igot.plt      0x0378248c        0x0 debugToFile.o

.bss            0x0378248c      0x290
                0x0378248c                __bss_start = ABSOLUTE (.)
                0x0378248c                __bss_start__ = ABSOLUTE (.)
 *(.dynbss)
 *(.gnu.linkonce.b*)
 *(.bss*)
 .bss           0x0378248c       0x29 debugToFile.o
 .bss           0x037824b5        0x1 dldiEngine.o
 .bss           0x037824b6        0x0 fat.o
 *fill*         0x037824b6        0x2 
 .bss           0x037824b8       0x3c sdmmc.o
 .bss           0x037824f4        0x0 bios.o
 .bss           0x037824f4        0x0 debugprint.o
 .bss           0x037824f4        0x0 sdmmc_engine_header.o
 .bss           0x037824f4        0x0 c:/devkitpro/devkitarm/bin/../lib/gcc/arm-none-eabi/6.3.0\libgcc.a(_udivsi3.o)
 .bss           0x037824f4        0x0 c:/devkitpro/devkitarm/bin/../lib/gcc/arm-none-eabi/6.3.0\libgcc.a(_divsi3.o)
 .bss           0x037824f4        0x0 c:/devkitpro/devkitarm/bin/../lib/gcc/arm-none-eabi/6.3.0\libgcc.a(_dvmd_tls.o)
 .bss           0x037824f4        0x0 c:/devkitpro/devkitarm/bin/../lib/gcc/arm-none-eabi/6.3.0/../../../../arm-none-eabi/lib\libg.a(lib_a-memcpy-stub.o)
 .bss           0x037824f4        0x0 c:/devkitpro/devkitarm/bin/../lib/gcc/arm-none-eabi/6.3.0/../../../../arm-none-eabi/lib\libg.a(lib_a-strlen-stub.o)
 *(COMMON)
 COMMON         0x037824f4      0x228 fat.o
                0x037824f4                discFileSystem
                0x037824f8                discBytePerClus
                0x037824fc                discData
                0x03782500                discRootDir
                0x03782504                discRootDirClus
                0x03782508                discBytePerSec
                0x0378250c                discSecPerFAT
                0x03782510                discFAT
                0x03782514                globalBuffer
                0x03782714                discSecPerClus
                0x03782718                discNumSec
                0x0378271c                . = ALIGN (0x4)
                0x0378271c                __bss_end = .
                0x0378271c                __bss_end__ = .
                0x0378271c                _end = .
                0x0378271c                __end__ = .
                [!provide]                PROVIDE (end, _end)

.stab
 *(.stab)

.stabstr
 *(.stabstr)

.stab.excl
 *(.stab.excl)

.stab.exclstr
 *(.stab.exclstr)

.stab.index
 *(.stab.index)

.stab.indexstr
 *(.stab.indexstr)

.comment        0x00000000       0x22
 *(.comment)
 .comment       0x00000000       0x22 debugToFile.o
                                 0x23 (size before relaxing)
 .comment       0x00000022       0x23 dldiEngine.o
 .comment       0x00000022       0x23 fat.o
 .comment       0x00000022       0x23 sdmmc.o
 .comment       0x00000022       0x23 c:/devkitpro/devkitarm/bin/../lib/gcc/arm-none-eabi/6.3.0/../../../../arm-none-eabi/lib\libg.a(lib_a-memcpy-stub.o)
 .comment       0x00000022       0x23 c:/devkitpro/devkitarm/bin/../lib/gcc/arm-none-eabi/6.3.0/../../../../arm-none-eabi/lib\libg.a(lib_a-strlen-stub.o)

.ARM.attributes
                0x00000000       0x2e
 .ARM.attributes
                0x00000000       0x2c debugToFile.o
 .ARM.attributes
                0x0000002c       0x2c dldiEngine.o
 .ARM.attributes
                0x00000058       0x2c fat.o
 .ARM.attributes
                0x00000084       0x2c sdmmc.o
 .ARM.attributes
                0x000000b0       0x1a bios.o
 .ARM.attributes
                0x000000ca       0x1a debugprint.o
 .ARM.attributes
                0x000000e4       0x1a sdmmc_engine_header.o
 .ARM.attributes
                0x000000fe       0x18 c:/devkitpro/devkitarm/bin/../lib/gcc/arm-none-eabi/6.3.0\libgcc.a(_udivsi3.o)
 .ARM.attributes
                0x00000116       0x18 c:/devkitpro/devkitarm/bin/../lib/gcc/arm-none-eabi/6.3.0\libgcc.a(_divsi3.o)
 .ARM.attributes
                0x0000012e       0x18 c:/devkitpro/devkitarm/bin/../lib/gcc/arm-none-eabi/6.3.0\libgcc.a(_dvmd_tls.o)
 .ARM.attributes
                0x00000146       0x30 c:/devkitpro/devkitarm/bin/../lib/gcc/arm-none-eabi/6.3.0/../../../../arm-none-eabi/lib\libg.a(lib_a-memcpy-stub.o)
 .ARM.attributes
                0x00000176       0x30 c:/devkitpro/devkitarm/bin/../lib/gcc/arm-none-eabi/6.3.0/../../../../arm-none-eabi/lib\libg.a(lib_a-strlen-stub.o)

.debug
 *(.debug)

.line
 *(.line)

.debug_srcinfo
 *(.debug_srcinfo)

.debug_sfnames
 *(.debug_sfnames)

.debug_aranges  0x00000000       0xe0
 *(.debug_aranges)
 .debug_aranges
                0x00000000       0x20 debugToFile.o
 .debug_aranges
                0x00000020       0x20 dldiEngine.o
 .debug_aranges
                0x00000040       0x20 fat.o
 .debug_aranges
                0x00000060       0x20 sdmmc.o
 .debug_aranges
                0x00000080       0x20 bios.o
 .debug_aranges
                0x000000a0       0x20 debugprint.o
 .debug_aranges
                0x000000c0       0x20 sdmmc_engine_header.o

.debug_pubnames
 *(.debug_pubnames)

.debug_info     0x00000000     0x4140
 *(.debug_info)
 .debug_info    0x00000000      0xbbc debugToFile.o
 .debug_info    0x00000bbc      0xb8c dldiEngine.o
 .debug_info    0x00001748     0x11f4 fat.o
 .debug_info    0x0000293c     0x15b5 sdmmc.o
 .debug_info    0x00003ef1       0xbe bios.o
 .debug_info    0x00003faf       0xc4 debugprint.o
 .debug_info    0x00004073       0xcd sdmmc_engine_header.o

.debug_abbrev   0x00000000      0xd0a
 *(.debug_abbrev)
 .debug_abbrev  0x00000000      0x2e2 debugToFile.o
 .debug_abbrev  0x000002e2      0x2f6 dldiEngine.o
 .debug_abbrev  0x000005d8      0x390 fat.o
 .debug_abbrev  0x00000968      0x366 sdmmc.o
 .debug_abbrev  0x00000cce       0x14 bios.o
 .debug_abbrev  0x00000ce2       0x14 debugprint.o
 .debug_abbrev  0x00000cf6       0x14 sdmmc_engine_header.o

.debug_line     0x00000000     0x119b
 *(.debug_line)
 .debug_line    0x00000000      0x226 debugToFile.o
 .debug_line    0x00000226      0x2b5 dldiEngine.o
 .debug_line    0x000004db      0x5e2 fat.o
 .debug_line    0x00000abd      0x50d sdmmc.o
 .debug_line    0x00000fca       0x80 bios.o
 .debug_line    0x0000104a       0x9d debugprint.o
 .debug_line    0x000010e7       0xb4 sdmmc_engine_header.o

.debug_frame    0x00000000      0x5a0
 *(.debug_frame)
 .debug_frame   0x00000000       0x88 debugToFile.o
 .debug_frame   0x00000088      0x14c dldiEngine.o
 .debug_frame   0x000001d4      0x1e4 fat.o
 .debug_frame   0x000003b8      0x1e8 sdmmc.o

.debug_str      0x00000000     0x13ac
 *(.debug_str)
 .debug_str     0x00000000      0x62b debugToFile.o
                                0x6bd (size before relaxing)
 .debug_str     0x0000062b      0x63f dldiEngine.o
                                0x7d2 (size before relaxing)
 .debug_str     0x00000c6a      0x5b4 fat.o
                                0x7b1 (size before relaxing)
 .debug_str     0x0000121e      0x18e sdmmc.o
                                0x570 (size before relaxing)

.debug_loc      0x00000000     0x242d
 *(.debug_loc)
 .debug_loc     0x00000000      0x106 debugToFile.o
 .debug_loc     0x00000106      0x2bb dldiEngine.o
 .debug_loc     0x000003c1     0x1381 fat.o
 .debug_loc     0x00001742      0xceb sdmmc.o

.debug_macinfo
 *(.debug_macinfo)

.debug_weaknames
 *(.debug_weaknames)

.debug_funcnames
 *(.debug_funcnames)

.debug_typenames
 *(.debug_typenames)

.debug_varnames
 *(.debug_varnames)

.stack          0x00080000        0x0
                0x00080000                _stack = .
 *(.stack)
OUTPUT(c:/Users/stoke/OneDrive/Documents/GitHub/nds-bootstrap/dldiengine/../data/dldiengine.elf elf32-littlearm)

.debug_ranges   0x00000000      0x540
 .debug_ranges  0x00000000       0x98 dldiEngine.o
 .debug_ranges  0x00000098      0x228 fat.o
 .debug_ranges  0x000002c0      0x280 sdmmc.o
